	.file	"server.c"
	.text
.Ltext0:
	.comm	mysql,1304,32
	.globl	make_daemon
	.type	make_daemon, @function
make_daemon:
.LFB2:
	.file 1 "server.c"
	.loc 1 8 0
	.cfi_startproc
	pushq	%rbp
	.cfi_def_cfa_offset 16
	.cfi_offset 6, -16
	movq	%rsp, %rbp
	.cfi_def_cfa_register 6
	subq	$16, %rsp
	.loc 1 11 0
	call	fork
	testl	%eax, %eax
	setne	%al
	movzbl	%al, %eax
	movl	%eax, -8(%rbp)
	cmpl	$0, -8(%rbp)
	je	.L2
	.loc 1 13 0
	movl	$0, %edi
	call	exit
.L2:
	.loc 1 16 0
	call	setsid
	.loc 1 20 0
	call	fork
	testl	%eax, %eax
	setne	%al
	movzbl	%al, %eax
	movl	%eax, -8(%rbp)
	cmpl	$0, -8(%rbp)
	je	.L3
	.loc 1 21 0
	movl	$0, %edi
	call	exit
.L3:
	.loc 1 23 0
	movl	$1, -4(%rbp)
	.loc 1 26 0
	movl	$0, %edi
	call	umask
	.loc 1 31 0
	nop
	leave
	.cfi_def_cfa 7, 8
	ret
	.cfi_endproc
.LFE2:
	.size	make_daemon, .-make_daemon
	.section	.rodata
.LC0:
	.string	"show_mysql"
.LC1:
	.string	"\345\210\235\345\247\213\345\214\226\345\244\261\350\264\245\357\274\201"
.LC2:
	.string	"message"
.LC3:
	.string	"123456"
.LC4:
	.string	"root"
.LC5:
	.string	"localhost"
.LC6:
	.string	"\350\277\236\346\216\245\346\210\220\345\212\237\357\274\201"
.LC7:
	.string	"utf8"
.LC8:
	.string	"select * from record"
.LC9:
	.string	"\346\237\245\350\257\242\351\224\231\350\257\257,error info:%s"
.LC10:
	.string	"\346\262\241\346\234\211\347\273\223\346\236\234"
.LC11:
	.string	"\345\205\261\346\234\211%d\345\210\227 %d\350\241\214\n"
.LC12:
	.string	"a:%c\n"
.LC13:
	.string	"malloc error"
.LC14:
	.string	"write"
.LC15:
	.string	"name:%s\t"
.LC16:
	.string	"ret :%d\tline:%d\n"
.LC17:
	.string	"row:%d\tnum_fields:%d\n"
.LC18:
	.string	"buff:%s "
	.text
	.globl	record_mysql
	.type	record_mysql, @function
record_mysql:
.LFB3:
	.loc 1 39 0
	.cfi_startproc
	pushq	%rbp
	.cfi_def_cfa_offset 16
	.cfi_offset 6, -16
	movq	%rsp, %rbp
	.cfi_def_cfa_register 6
	subq	$2208, %rsp
	movl	%edi, -2196(%rbp)
	movq	%rsi, -2208(%rbp)
	.loc 1 39 0
	movq	%fs:40, %rax
	movq	%rax, -8(%rbp)
	xorl	%eax, %eax
	.loc 1 41 0
	movl	$.LC0, %edi
	call	puts
	.loc 1 45 0
	movq	$0, -2152(%rbp)
	.loc 1 49 0
	movl	$mysql, %edi
	call	mysql_init
	.loc 1 49 0
	testq	%rax, %rax
	jne	.L5
	.loc 1 51 0
	movl	$.LC1, %edi
	call	puts
	.loc 1 52 0
	movl	$0, %eax
	jmp	.L4
.L5:
	.loc 1 55 0
	pushq	$0
	pushq	$0
	movl	$0, %r9d
	movl	$.LC2, %r8d
	movl	$.LC3, %ecx
	movl	$.LC4, %edx
	movl	$.LC5, %esi
	movl	$mysql, %edi
	call	mysql_real_connect
	addq	$16, %rsp
	.loc 1 55 0
	testq	%rax, %rax
	jne	.L7
	.loc 1 57 0
	movl	$mysql, %edi
	call	mysql_error
	movq	%rax, %rdi
	call	puts
	.loc 1 58 0
	movl	$0, %eax
	jmp	.L4
.L7:
	.loc 1 61 0
	movl	$.LC6, %edi
	call	puts
	.loc 1 63 0
	movl	$.LC7, %esi
	movl	$mysql, %edi
	call	mysql_set_character_set
	.loc 1 65 0
	movq	$.LC8, -2144(%rbp)
	.loc 1 67 0
	movq	-2144(%rbp), %rax
	movq	%rax, %rsi
	movl	$mysql, %edi
	call	mysql_query
	movl	%eax, -2176(%rbp)
	.loc 1 70 0
	cmpl	$0, -2176(%rbp)
	je	.L8
	.loc 1 72 0
	movl	$mysql, %edi
	call	mysql_error
	movq	%rax, %rsi
	movl	$.LC9, %edi
	movl	$0, %eax
	call	printf
	.loc 1 73 0
	movl	$-1, %eax
	jmp	.L4
.L8:
	.loc 1 76 0
	movl	$.LC6, %edi
	call	puts
	.loc 1 80 0
	movl	$mysql, %edi
	call	mysql_store_result
	movq	%rax, -2136(%rbp)
	.loc 1 83 0
	cmpq	$0, -2136(%rbp)
	jne	.L9
	.loc 1 85 0
	movl	$.LC10, %edi
	call	puts
	.loc 1 86 0
	movl	$0, %eax
	jmp	.L4
.L9:
	.loc 1 90 0
	movq	-2136(%rbp), %rax
	movq	%rax, %rdi
	call	mysql_num_fields
	movl	%eax, -2172(%rbp)
	.loc 1 94 0
	movq	-2136(%rbp), %rax
	movq	%rax, %rdi
	call	mysql_num_rows
	movl	%eax, -2168(%rbp)
	.loc 1 96 0
	movl	-2168(%rbp), %edx
	movl	-2172(%rbp), %eax
	movl	%eax, %esi
	movl	$.LC11, %edi
	movl	$0, %eax
	call	printf
	.loc 1 101 0
	movl	-2204(%rbp), %eax
	movslq	%eax, %rdx
	leaq	-2181(%rbp), %rcx
	movl	-2196(%rbp), %eax
	movq	%rcx, %rsi
	movl	%eax, %edi
	call	read
	movl	%eax, -2164(%rbp)
	.loc 1 103 0
	movzbl	-2181(%rbp), %eax
	movsbl	%al, %eax
	movl	%eax, %esi
	movl	$.LC12, %edi
	movl	$0, %eax
	call	printf
	.loc 1 104 0
	movzbl	-2181(%rbp), %eax
	cmpb	$121, %al
	jne	.L10
.LBB2:
	.loc 1 105 0
	jmp	.L11
.L15:
	.loc 1 108 0
	movl	$9, %edi
	call	malloc
	movq	%rax, -2152(%rbp)
	.loc 1 110 0
	cmpq	$0, -2152(%rbp)
	jne	.L12
	.loc 1 112 0
	movl	$.LC13, %edi
	call	puts
	.loc 1 113 0
	movl	$-1, %eax
	jmp	.L4
.L12:
	.loc 1 116 0
	movq	-2152(%rbp), %rax
	movl	$84, (%rax)
	.loc 1 118 0
	movq	-2128(%rbp), %rax
	movq	(%rax), %rdx
	leaq	-1072(%rbp), %rax
	movq	%rdx, %rsi
	movq	%rax, %rdi
	call	strcpy
	.loc 1 120 0
	leaq	-1072(%rbp), %rax
	movq	%rax, %rdi
	call	strlen
	movl	%eax, %edx
	movq	-2152(%rbp), %rax
	movl	%edx, 4(%rax)
	.loc 1 122 0
	leaq	-1072(%rbp), %rax
	movq	%rax, %rdi
	call	strlen
	movq	%rax, %rdx
	movq	-2152(%rbp), %rax
	leaq	8(%rax), %rcx
	leaq	-1072(%rbp), %rax
	movq	%rax, %rsi
	movq	%rcx, %rdi
	call	memcpy
	.loc 1 124 0
	leaq	-1072(%rbp), %rax
	movq	%rax, %rdi
	call	strlen
	leaq	8(%rax), %rdx
	movq	-2152(%rbp), %rcx
	movl	-2196(%rbp), %eax
	movq	%rcx, %rsi
	movl	%eax, %edi
	call	write
	movl	%eax, -2164(%rbp)
	.loc 1 126 0
	cmpl	$0, -2164(%rbp)
	jg	.L14
	.loc 1 128 0
	movl	$.LC14, %edi
	call	perror
	.loc 1 129 0
	movl	$-1, %eax
	jmp	.L4
.L14:
	.loc 1 131 0
	movq	-2128(%rbp), %rax
	movq	(%rax), %rax
	movq	%rax, %rsi
	movl	$.LC15, %edi
	movl	$0, %eax
	call	printf
	.loc 1 133 0
	movq	-2152(%rbp), %rax
	movq	%rax, %rdi
	call	free
.L11:
	.loc 1 105 0
	movq	-2136(%rbp), %rax
	movq	%rax, %rdi
	call	mysql_fetch_field
	movq	%rax, -2128(%rbp)
	cmpq	$0, -2128(%rbp)
	jne	.L15
	.loc 1 136 0
	movl	$10, %edi
	call	putchar
	.loc 1 144 0
	movl	$16, %edi
	call	malloc
	movq	%rax, -2152(%rbp)
	.loc 1 146 0
	cmpq	$0, -2152(%rbp)
	jne	.L16
	.loc 1 148 0
	movl	$.LC13, %edi
	call	puts
	.loc 1 149 0
	movl	$-1, %eax
	jmp	.L4
.L16:
	.loc 1 152 0
	movq	-2152(%rbp), %rax
	movl	$85, (%rax)
	.loc 1 158 0
	movl	-2168(%rbp), %eax
	movl	%eax, -2160(%rbp)
	.loc 1 160 0
	movl	-2172(%rbp), %eax
	movl	%eax, -2156(%rbp)
	.loc 1 162 0
	movl	-2168(%rbp), %edx
	movl	-2172(%rbp), %eax
	movl	%eax, %esi
	movl	$.LC11, %edi
	movl	$0, %eax
	call	printf
	.loc 1 164 0
	movq	-2152(%rbp), %rax
	movl	$8, 4(%rax)
	.loc 1 166 0
	movq	-2152(%rbp), %rax
	leaq	8(%rax), %rdx
	movq	-2160(%rbp), %rax
	movq	%rax, (%rdx)
	.loc 1 168 0
	movq	-2152(%rbp), %rcx
	movl	-2196(%rbp), %eax
	movl	$16, %edx
	movq	%rcx, %rsi
	movl	%eax, %edi
	call	write
	movl	%eax, -2164(%rbp)
	.loc 1 170 0
	movl	-2164(%rbp), %eax
	movl	$170, %edx
	movl	%eax, %esi
	movl	$.LC16, %edi
	movl	$0, %eax
	call	printf
	.loc 1 172 0
	movq	-2152(%rbp), %rax
	movq	%rax, %rdi
	call	free
	.loc 1 174 0
	jmp	.L17
.L21:
	.loc 1 176 0
	movl	-2172(%rbp), %edx
	movl	-2168(%rbp), %eax
	movl	%eax, %esi
	movl	$.LC17, %edi
	movl	$0, %eax
	call	printf
	.loc 1 178 0
	movl	$0, -2180(%rbp)
	jmp	.L18
.L20:
	.loc 1 180 0
	movl	$1036, %edi
	call	malloc
	movq	%rax, -2152(%rbp)
	.loc 1 182 0
	cmpq	$0, -2152(%rbp)
	jne	.L19
	.loc 1 184 0
	movl	$.LC13, %edi
	call	puts
	.loc 1 185 0
	movl	$-1, %eax
	jmp	.L4
.L19:
	.loc 1 188 0 discriminator 2
	movq	-2152(%rbp), %rax
	movl	$86, (%rax)
	.loc 1 190 0 discriminator 2
	movl	-2180(%rbp), %eax
	cltq
	leaq	0(,%rax,8), %rdx
	movq	-2120(%rbp), %rax
	addq	%rdx, %rax
	movq	(%rax), %rax
	leaq	-2112(%rbp), %rdx
	addq	$4, %rdx
	movq	%rax, %rsi
	movq	%rdx, %rdi
	call	strcpy
	.loc 1 192 0 discriminator 2
	leaq	-1040(%rbp), %rax
	movq	%rax, %rdi
	call	strlen
	movl	%eax, -2112(%rbp)
	.loc 1 194 0 discriminator 2
	movq	-2152(%rbp), %rax
	movl	$1028, 4(%rax)
	.loc 1 196 0 discriminator 2
	movq	-2152(%rbp), %rax
	addq	$8, %rax
	movq	%rax, %rdx
	leaq	-2112(%rbp), %rax
	movl	$1028, %ecx
	movq	(%rax), %rsi
	movq	%rsi, (%rdx)
	movl	%ecx, %esi
	addq	%rdx, %rsi
	leaq	8(%rsi), %rdi
	movl	%ecx, %esi
	addq	%rax, %rsi
	addq	$8, %rsi
	movq	-16(%rsi), %rsi
	movq	%rsi, -16(%rdi)
	leaq	8(%rdx), %rdi
	andq	$-8, %rdi
	subq	%rdi, %rdx
	subq	%rdx, %rax
	addl	%edx, %ecx
	andl	$-8, %ecx
	shrl	$3, %ecx
	movl	%ecx, %edx
	movl	%edx, %edx
	movq	%rax, %rsi
	movq	%rdx, %rcx
	rep movsq
	.loc 1 198 0 discriminator 2
	movq	-2152(%rbp), %rcx
	movl	-2196(%rbp), %eax
	movl	$1036, %edx
	movq	%rcx, %rsi
	movl	%eax, %edi
	call	write
	movl	%eax, -2164(%rbp)
	.loc 1 200 0 discriminator 2
	movl	-2164(%rbp), %eax
	movl	$200, %edx
	movl	%eax, %esi
	movl	$.LC16, %edi
	movl	$0, %eax
	call	printf
	.loc 1 202 0 discriminator 2
	leaq	-2112(%rbp), %rax
	addq	$4, %rax
	movq	%rax, %rsi
	movl	$.LC18, %edi
	movl	$0, %eax
	call	printf
	.loc 1 204 0 discriminator 2
	movq	-2152(%rbp), %rax
	movq	%rax, %rdi
	call	free
	.loc 1 178 0 discriminator 2
	addl	$1, -2180(%rbp)
.L18:
	.loc 1 178 0 is_stmt 0 discriminator 1
	movl	-2180(%rbp), %eax
	cmpl	-2172(%rbp), %eax
	jl	.L20
	.loc 1 207 0 is_stmt 1
	movl	$10, %edi
	call	putchar
.L17:
	.loc 1 174 0
	movq	-2136(%rbp), %rax
	movq	%rax, %rdi
	call	mysql_fetch_row
	movq	%rax, -2120(%rbp)
	cmpq	$0, -2120(%rbp)
	jne	.L21
.L10:
.LBE2:
	.loc 1 211 0
	movl	$8, %edi
	call	malloc
	movq	%rax, -2152(%rbp)
	.loc 1 213 0
	cmpq	$0, -2152(%rbp)
	jne	.L22
	.loc 1 215 0
	movl	$.LC13, %edi
	call	puts
	.loc 1 216 0
	movl	$-1, %eax
	jmp	.L4
.L22:
	.loc 1 219 0
	movq	-2152(%rbp), %rax
	movl	$87, (%rax)
	.loc 1 221 0
	movq	-2152(%rbp), %rcx
	movl	-2196(%rbp), %eax
	movl	$8, %edx
	movq	%rcx, %rsi
	movl	%eax, %edi
	call	write
	movl	%eax, -2164(%rbp)
	.loc 1 223 0
	movq	-2152(%rbp), %rax
	movq	%rax, %rdi
	call	free
	.loc 1 225 0
	movq	-2136(%rbp), %rax
	movq	%rax, %rdi
	call	mysql_free_result
	.loc 1 228 0
	movl	$mysql, %edi
	call	mysql_close
.L4:
	.loc 1 229 0
	movq	-8(%rbp), %rcx
	xorq	%fs:40, %rcx
	je	.L24
	call	__stack_chk_fail
.L24:
	leave
	.cfi_def_cfa 7, 8
	ret
	.cfi_endproc
.LFE3:
	.size	record_mysql, .-record_mysql
	.section	.rodata
.LC19:
	.string	"%04d-%02d-%02d\n"
.LC20:
	.string	"%02d:%02d:%02d\n"
.LC21:
	.string	"%s %s"
	.align 8
.LC22:
	.string	"insert into record  values (%d,'%s','%s','%s','%s');"
.LC23:
	.string	"%s,%d\n"
	.text
	.globl	mysql_record
	.type	mysql_record, @function
mysql_record:
.LFB4:
	.loc 1 233 0
	.cfi_startproc
	pushq	%rbp
	.cfi_def_cfa_offset 16
	.cfi_offset 6, -16
	movq	%rsp, %rbp
	.cfi_def_cfa_register 6
	subq	$2256, %rsp
	movl	%edi, -2228(%rbp)
	movq	%rsi, -2240(%rbp)
	movq	%rdx, -2248(%rbp)
	.loc 1 233 0
	movq	%fs:40, %rax
	movq	%rax, -8(%rbp)
	xorl	%eax, %eax
	.loc 1 246 0
	movl	$mysql, %edi
	call	mysql_init
	.loc 1 246 0
	testq	%rax, %rax
	jne	.L26
	.loc 1 248 0
	movl	$.LC1, %edi
	call	puts
	.loc 1 249 0
	movl	$0, %eax
	jmp	.L34
.L26:
	.loc 1 252 0
	pushq	$0
	pushq	$0
	movl	$0, %r9d
	movl	$.LC2, %r8d
	movl	$.LC3, %ecx
	movl	$.LC4, %edx
	movl	$.LC5, %esi
	movl	$mysql, %edi
	call	mysql_real_connect
	addq	$16, %rsp
	.loc 1 252 0
	testq	%rax, %rax
	jne	.L28
	.loc 1 254 0
	movl	$mysql, %edi
	call	mysql_error
	movq	%rax, %rdi
	call	puts
	.loc 1 255 0
	movl	$0, %eax
	jmp	.L34
.L28:
	.loc 1 258 0
	movl	$.LC6, %edi
	call	puts
	.loc 1 260 0
	movq	$0, -2208(%rbp)
	.loc 1 262 0
	movq	-2248(%rbp), %rax
	movq	%rax, -2208(%rbp)
	.loc 1 264 0
	jmp	.L29
.L32:
	.loc 1 266 0
	movq	-2208(%rbp), %rax
	movl	36(%rax), %eax
	cmpl	-2228(%rbp), %eax
	je	.L36
	.loc 1 268 0
	movq	-2208(%rbp), %rax
	movq	112(%rax), %rax
	movq	%rax, -2208(%rbp)
.L29:
	.loc 1 264 0
	cmpq	$0, -2208(%rbp)
	jne	.L32
	jmp	.L31
.L36:
	.loc 1 267 0
	nop
.L31:
	.loc 1 276 0
	leaq	-2216(%rbp), %rax
	movq	%rax, %rdi
	call	time
	.loc 1 278 0
	leaq	-2216(%rbp), %rax
	movq	%rax, %rdi
	call	localtime
	movq	%rax, -2200(%rbp)
	.loc 1 280 0
	movq	-2200(%rbp), %rax
	movl	12(%rax), %esi
	movq	-2200(%rbp), %rax
	movl	16(%rax), %eax
	leal	1(%rax), %ecx
	movq	-2200(%rbp), %rax
	movl	20(%rax), %eax
	leal	1900(%rax), %edx
	leaq	-2064(%rbp), %rax
	movl	%esi, %r8d
	movl	$.LC19, %esi
	movq	%rax, %rdi
	movl	$0, %eax
	call	sprintf
	.loc 1 282 0
	movq	-2200(%rbp), %rax
	movl	(%rax), %esi
	movq	-2200(%rbp), %rax
	movl	4(%rax), %ecx
	movq	-2200(%rbp), %rax
	movl	8(%rax), %edx
	leaq	-1040(%rbp), %rax
	movl	%esi, %r8d
	movl	$.LC20, %esi
	movq	%rax, %rdi
	movl	$0, %eax
	call	sprintf
	.loc 1 284 0
	leaq	-1040(%rbp), %rdx
	leaq	-2064(%rbp), %rax
	movq	%rax, %rsi
	movl	$.LC21, %edi
	movl	$0, %eax
	call	printf
	.loc 1 286 0
	movq	-2208(%rbp), %rax
	leaq	4(%rax), %rcx
	movq	-2208(%rbp), %rax
	movl	(%rax), %edx
	leaq	-1040(%rbp), %rdi
	leaq	-2064(%rbp), %rsi
	leaq	-2192(%rbp), %rax
	subq	$8, %rsp
	pushq	-2240(%rbp)
	movq	%rdi, %r9
	movq	%rsi, %r8
	movl	$.LC22, %esi
	movq	%rax, %rdi
	movl	$0, %eax
	call	sprintf
	addq	$16, %rsp
	.loc 1 288 0
	leaq	-2192(%rbp), %rax
	movq	%rax, %rsi
	movl	$mysql, %edi
	call	mysql_query
	testl	%eax, %eax
	je	.L33
	.loc 1 290 0
	movl	$mysql, %edi
	call	mysql_error
	movl	$290, %edx
	movq	%rax, %rsi
	movl	$.LC23, %edi
	movl	$0, %eax
	call	printf
	.loc 1 291 0
	movl	$-1, %eax
	jmp	.L34
.L33:
	.loc 1 294 0
	movl	$mysql, %edi
	call	mysql_close
	.loc 1 296 0
	movl	$0, %eax
.L34:
	.loc 1 297 0 discriminator 1
	movq	-8(%rbp), %rcx
	xorq	%fs:40, %rcx
	je	.L35
	.loc 1 297 0 is_stmt 0
	call	__stack_chk_fail
.L35:
	leave
	.cfi_def_cfa 7, 8
	ret
	.cfi_endproc
.LFE4:
	.size	mysql_record, .-mysql_record
	.section	.rodata
.LC24:
	.string	"select num,passwd  from msg"
	.text
	.globl	show_mysql
	.type	show_mysql, @function
show_mysql:
.LFB5:
	.loc 1 305 0 is_stmt 1
	.cfi_startproc
	pushq	%rbp
	.cfi_def_cfa_offset 16
	.cfi_offset 6, -16
	movq	%rsp, %rbp
	.cfi_def_cfa_register 6
	subq	$2208, %rsp
	movl	%edi, -2196(%rbp)
	movq	%rsi, -2208(%rbp)
	.loc 1 305 0
	movq	%fs:40, %rax
	movq	%rax, -8(%rbp)
	xorl	%eax, %eax
	.loc 1 307 0
	movl	$.LC0, %edi
	call	puts
	.loc 1 311 0
	movq	$0, -2152(%rbp)
	.loc 1 315 0
	movl	$mysql, %edi
	call	mysql_init
	.loc 1 315 0
	testq	%rax, %rax
	jne	.L38
	.loc 1 317 0
	movl	$.LC1, %edi
	call	puts
	.loc 1 318 0
	movl	$0, %eax
	jmp	.L37
.L38:
	.loc 1 321 0
	pushq	$0
	pushq	$0
	movl	$0, %r9d
	movl	$.LC2, %r8d
	movl	$.LC3, %ecx
	movl	$.LC4, %edx
	movl	$.LC5, %esi
	movl	$mysql, %edi
	call	mysql_real_connect
	addq	$16, %rsp
	.loc 1 321 0
	testq	%rax, %rax
	jne	.L40
	.loc 1 323 0
	movl	$mysql, %edi
	call	mysql_error
	movq	%rax, %rdi
	call	puts
	.loc 1 324 0
	movl	$0, %eax
	jmp	.L37
.L40:
	.loc 1 327 0
	movl	$.LC6, %edi
	call	puts
	.loc 1 329 0
	movl	$.LC7, %esi
	movl	$mysql, %edi
	call	mysql_set_character_set
	.loc 1 331 0
	movq	$.LC24, -2144(%rbp)
	.loc 1 333 0
	movq	-2144(%rbp), %rax
	movq	%rax, %rsi
	movl	$mysql, %edi
	call	mysql_query
	movl	%eax, -2176(%rbp)
	.loc 1 336 0
	cmpl	$0, -2176(%rbp)
	je	.L41
	.loc 1 338 0
	movl	$mysql, %edi
	call	mysql_error
	movq	%rax, %rsi
	movl	$.LC9, %edi
	movl	$0, %eax
	call	printf
	.loc 1 339 0
	movl	$-1, %eax
	jmp	.L37
.L41:
	.loc 1 341 0
	movl	$.LC6, %edi
	call	puts
	.loc 1 345 0
	movl	$mysql, %edi
	call	mysql_store_result
	movq	%rax, -2136(%rbp)
	.loc 1 348 0
	cmpq	$0, -2136(%rbp)
	jne	.L42
	.loc 1 350 0
	movl	$.LC10, %edi
	call	puts
	.loc 1 351 0
	movl	$0, %eax
	jmp	.L37
.L42:
	.loc 1 355 0
	movq	-2136(%rbp), %rax
	movq	%rax, %rdi
	call	mysql_num_fields
	movl	%eax, -2172(%rbp)
	.loc 1 360 0
	movq	-2136(%rbp), %rax
	movq	%rax, %rdi
	call	mysql_num_rows
	movl	%eax, -2168(%rbp)
	.loc 1 362 0
	movl	-2168(%rbp), %edx
	movl	-2172(%rbp), %eax
	movl	%eax, %esi
	movl	$.LC11, %edi
	movl	$0, %eax
	call	printf
	.loc 1 369 0
	movl	-2204(%rbp), %eax
	movslq	%eax, %rdx
	leaq	-2181(%rbp), %rcx
	movl	-2196(%rbp), %eax
	movq	%rcx, %rsi
	movl	%eax, %edi
	call	read
	movl	%eax, -2164(%rbp)
	.loc 1 371 0
	movzbl	-2181(%rbp), %eax
	movsbl	%al, %eax
	movl	%eax, %esi
	movl	$.LC12, %edi
	movl	$0, %eax
	call	printf
	.loc 1 373 0
	movzbl	-2181(%rbp), %eax
	cmpb	$121, %al
	jne	.L43
.LBB3:
	.loc 1 374 0
	jmp	.L44
.L48:
	.loc 1 376 0
	movl	$9, %edi
	call	malloc
	movq	%rax, -2152(%rbp)
	.loc 1 377 0
	cmpq	$0, -2152(%rbp)
	jne	.L45
	.loc 1 379 0
	movl	$.LC13, %edi
	call	puts
	.loc 1 380 0
	movl	$-1, %eax
	jmp	.L37
.L45:
	.loc 1 383 0
	movq	-2152(%rbp), %rax
	movl	$74, (%rax)
	.loc 1 385 0
	movq	-2128(%rbp), %rax
	movq	(%rax), %rdx
	leaq	-1072(%rbp), %rax
	movq	%rdx, %rsi
	movq	%rax, %rdi
	call	strcpy
	.loc 1 387 0
	leaq	-1072(%rbp), %rax
	movq	%rax, %rdi
	call	strlen
	movl	%eax, %edx
	movq	-2152(%rbp), %rax
	movl	%edx, 4(%rax)
	.loc 1 389 0
	leaq	-1072(%rbp), %rax
	movq	%rax, %rdi
	call	strlen
	movq	%rax, %rdx
	movq	-2152(%rbp), %rax
	leaq	8(%rax), %rcx
	leaq	-1072(%rbp), %rax
	movq	%rax, %rsi
	movq	%rcx, %rdi
	call	memcpy
	.loc 1 391 0
	leaq	-1072(%rbp), %rax
	movq	%rax, %rdi
	call	strlen
	leaq	8(%rax), %rdx
	movq	-2152(%rbp), %rcx
	movl	-2196(%rbp), %eax
	movq	%rcx, %rsi
	movl	%eax, %edi
	call	write
	movl	%eax, -2164(%rbp)
	.loc 1 393 0
	cmpl	$0, -2164(%rbp)
	jg	.L47
	.loc 1 395 0
	movl	$.LC14, %edi
	call	perror
	.loc 1 396 0
	movl	$-1, %eax
	jmp	.L37
.L47:
	.loc 1 398 0
	movq	-2128(%rbp), %rax
	movq	(%rax), %rax
	movq	%rax, %rsi
	movl	$.LC15, %edi
	movl	$0, %eax
	call	printf
	.loc 1 400 0
	movq	-2152(%rbp), %rax
	movq	%rax, %rdi
	call	free
.L44:
	.loc 1 374 0
	movq	-2136(%rbp), %rax
	movq	%rax, %rdi
	call	mysql_fetch_field
	movq	%rax, -2128(%rbp)
	cmpq	$0, -2128(%rbp)
	jne	.L48
	.loc 1 403 0
	movl	$10, %edi
	call	putchar
	.loc 1 412 0
	movl	$16, %edi
	call	malloc
	movq	%rax, -2152(%rbp)
	.loc 1 414 0
	cmpq	$0, -2152(%rbp)
	jne	.L49
	.loc 1 416 0
	movl	$.LC13, %edi
	call	puts
	.loc 1 417 0
	movl	$-1, %eax
	jmp	.L37
.L49:
	.loc 1 420 0
	movq	-2152(%rbp), %rax
	movl	$75, (%rax)
	.loc 1 426 0
	movl	-2168(%rbp), %eax
	movl	%eax, -2160(%rbp)
	.loc 1 428 0
	movl	-2172(%rbp), %eax
	movl	%eax, -2156(%rbp)
	.loc 1 430 0
	movl	-2168(%rbp), %edx
	movl	-2172(%rbp), %eax
	movl	%eax, %esi
	movl	$.LC11, %edi
	movl	$0, %eax
	call	printf
	.loc 1 432 0
	movq	-2152(%rbp), %rax
	movl	$8, 4(%rax)
	.loc 1 434 0
	movq	-2152(%rbp), %rax
	leaq	8(%rax), %rdx
	movq	-2160(%rbp), %rax
	movq	%rax, (%rdx)
	.loc 1 436 0
	movq	-2152(%rbp), %rcx
	movl	-2196(%rbp), %eax
	movl	$16, %edx
	movq	%rcx, %rsi
	movl	%eax, %edi
	call	write
	movl	%eax, -2164(%rbp)
	.loc 1 438 0
	movl	-2164(%rbp), %eax
	movl	$438, %edx
	movl	%eax, %esi
	movl	$.LC16, %edi
	movl	$0, %eax
	call	printf
	.loc 1 440 0
	movq	-2152(%rbp), %rax
	movq	%rax, %rdi
	call	free
	.loc 1 442 0
	jmp	.L50
.L54:
	.loc 1 445 0
	movl	-2172(%rbp), %edx
	movl	-2168(%rbp), %eax
	movl	%eax, %esi
	movl	$.LC17, %edi
	movl	$0, %eax
	call	printf
	.loc 1 447 0
	movl	$0, -2180(%rbp)
	jmp	.L51
.L53:
	.loc 1 450 0
	movl	$1036, %edi
	call	malloc
	movq	%rax, -2152(%rbp)
	.loc 1 452 0
	cmpq	$0, -2152(%rbp)
	jne	.L52
	.loc 1 454 0
	movl	$.LC13, %edi
	call	puts
	.loc 1 455 0
	movl	$-1, %eax
	jmp	.L37
.L52:
	.loc 1 458 0 discriminator 2
	movq	-2152(%rbp), %rax
	movl	$76, (%rax)
	.loc 1 460 0 discriminator 2
	movl	-2180(%rbp), %eax
	cltq
	leaq	0(,%rax,8), %rdx
	movq	-2120(%rbp), %rax
	addq	%rdx, %rax
	movq	(%rax), %rax
	leaq	-2112(%rbp), %rdx
	addq	$4, %rdx
	movq	%rax, %rsi
	movq	%rdx, %rdi
	call	strcpy
	.loc 1 462 0 discriminator 2
	leaq	-1040(%rbp), %rax
	movq	%rax, %rdi
	call	strlen
	movl	%eax, -2112(%rbp)
	.loc 1 464 0 discriminator 2
	movq	-2152(%rbp), %rax
	movl	$1028, 4(%rax)
	.loc 1 466 0 discriminator 2
	movq	-2152(%rbp), %rax
	addq	$8, %rax
	movq	%rax, %rdx
	leaq	-2112(%rbp), %rax
	movl	$1028, %ecx
	movq	(%rax), %rsi
	movq	%rsi, (%rdx)
	movl	%ecx, %esi
	addq	%rdx, %rsi
	leaq	8(%rsi), %rdi
	movl	%ecx, %esi
	addq	%rax, %rsi
	addq	$8, %rsi
	movq	-16(%rsi), %rsi
	movq	%rsi, -16(%rdi)
	leaq	8(%rdx), %rdi
	andq	$-8, %rdi
	subq	%rdi, %rdx
	subq	%rdx, %rax
	addl	%edx, %ecx
	andl	$-8, %ecx
	shrl	$3, %ecx
	movl	%ecx, %edx
	movl	%edx, %edx
	movq	%rax, %rsi
	movq	%rdx, %rcx
	rep movsq
	.loc 1 468 0 discriminator 2
	movq	-2152(%rbp), %rcx
	movl	-2196(%rbp), %eax
	movl	$1036, %edx
	movq	%rcx, %rsi
	movl	%eax, %edi
	call	write
	movl	%eax, -2164(%rbp)
	.loc 1 470 0 discriminator 2
	movl	-2164(%rbp), %eax
	movl	$470, %edx
	movl	%eax, %esi
	movl	$.LC16, %edi
	movl	$0, %eax
	call	printf
	.loc 1 472 0 discriminator 2
	leaq	-2112(%rbp), %rax
	addq	$4, %rax
	movq	%rax, %rsi
	movl	$.LC18, %edi
	movl	$0, %eax
	call	printf
	.loc 1 474 0 discriminator 2
	movq	-2152(%rbp), %rax
	movq	%rax, %rdi
	call	free
	.loc 1 447 0 discriminator 2
	addl	$1, -2180(%rbp)
.L51:
	.loc 1 447 0 is_stmt 0 discriminator 1
	movl	-2180(%rbp), %eax
	cmpl	-2172(%rbp), %eax
	jl	.L53
	.loc 1 477 0 is_stmt 1
	movl	$10, %edi
	call	putchar
.L50:
	.loc 1 442 0
	movq	-2136(%rbp), %rax
	movq	%rax, %rdi
	call	mysql_fetch_row
	movq	%rax, -2120(%rbp)
	cmpq	$0, -2120(%rbp)
	jne	.L54
.L43:
.LBE3:
	.loc 1 482 0
	movl	$8, %edi
	call	malloc
	movq	%rax, -2152(%rbp)
	.loc 1 484 0
	cmpq	$0, -2152(%rbp)
	jne	.L55
	.loc 1 486 0
	movl	$.LC13, %edi
	call	puts
	.loc 1 487 0
	movl	$-1, %eax
	jmp	.L37
.L55:
	.loc 1 490 0
	movq	-2152(%rbp), %rax
	movl	$77, (%rax)
	.loc 1 492 0
	movq	-2152(%rbp), %rcx
	movl	-2196(%rbp), %eax
	movl	$8, %edx
	movq	%rcx, %rsi
	movl	%eax, %edi
	call	write
	movl	%eax, -2164(%rbp)
	.loc 1 494 0
	movq	-2152(%rbp), %rax
	movq	%rax, %rdi
	call	free
	.loc 1 497 0
	movq	-2136(%rbp), %rax
	movq	%rax, %rdi
	call	mysql_free_result
	.loc 1 499 0
	movl	$mysql, %edi
	call	mysql_close
.L37:
	.loc 1 500 0
	movq	-8(%rbp), %rcx
	xorq	%fs:40, %rcx
	je	.L57
	call	__stack_chk_fail
.L57:
	leave
	.cfi_def_cfa 7, 8
	ret
	.cfi_endproc
.LFE5:
	.size	show_mysql, .-show_mysql
	.section	.rodata
.LC25:
	.string	"write sucess"
	.text
	.globl	send_link
	.type	send_link, @function
send_link:
.LFB6:
	.loc 1 504 0
	.cfi_startproc
	pushq	%rbp
	.cfi_def_cfa_offset 16
	.cfi_offset 6, -16
	movq	%rsp, %rbp
	.cfi_def_cfa_register 6
	subq	$64, %rsp
	movq	%rdi, -56(%rbp)
	movl	%esi, -60(%rbp)
	.loc 1 504 0
	movq	%fs:40, %rax
	movq	%rax, -8(%rbp)
	xorl	%eax, %eax
	.loc 1 508 0
	movq	$0, -32(%rbp)
	.loc 1 510 0
	movq	-56(%rbp), %rax
	movq	%rax, -32(%rbp)
	.loc 1 512 0
	movq	$0, -24(%rbp)
	.loc 1 514 0
	movl	$8, %edi
	call	malloc
	movq	%rax, -24(%rbp)
	.loc 1 516 0
	movq	-24(%rbp), %rax
	movl	$100, (%rax)
	.loc 1 518 0
	movq	-24(%rbp), %rcx
	movl	-60(%rbp), %eax
	movl	$8, %edx
	movq	%rcx, %rsi
	movl	%eax, %edi
	call	write
	movl	%eax, -36(%rbp)
	.loc 1 520 0
	jmp	.L59
.L62:
	.loc 1 523 0
	movq	-32(%rbp), %rcx
	movl	-60(%rbp), %eax
	movl	$120, %edx
	movq	%rcx, %rsi
	movl	%eax, %edi
	call	write
	movl	%eax, -36(%rbp)
	.loc 1 525 0
	cmpl	$0, -36(%rbp)
	jns	.L60
	.loc 1 527 0
	movl	$.LC14, %edi
	call	perror
	.loc 1 528 0
	jmp	.L61
.L60:
	.loc 1 532 0
	movl	$.LC25, %edi
	call	puts
	.loc 1 535 0
	movq	-32(%rbp), %rax
	movq	112(%rax), %rax
	movq	%rax, -32(%rbp)
.L59:
	.loc 1 520 0
	cmpq	$0, -32(%rbp)
	jne	.L62
.L61:
	.loc 1 541 0
	movl	$62, -16(%rbp)
	.loc 1 543 0
	leaq	-16(%rbp), %rcx
	movl	-60(%rbp), %eax
	movl	$8, %edx
	movq	%rcx, %rsi
	movl	%eax, %edi
	call	write
	.loc 1 545 0
	movl	$0, %eax
	.loc 1 546 0
	movq	-8(%rbp), %rdx
	xorq	%fs:40, %rdx
	je	.L64
	call	__stack_chk_fail
.L64:
	leave
	.cfi_def_cfa 7, 8
	ret
	.cfi_endproc
.LFE6:
	.size	send_link, .-send_link
	.section	.rodata
.LC26:
	.string	"%d\t%s\t%d\t%s\t%d\n"
	.text
	.globl	show
	.type	show, @function
show:
.LFB7:
	.loc 1 552 0
	.cfi_startproc
	pushq	%rbp
	.cfi_def_cfa_offset 16
	.cfi_offset 6, -16
	movq	%rsp, %rbp
	.cfi_def_cfa_register 6
	subq	$32, %rsp
	movq	%rdi, -24(%rbp)
	.loc 1 554 0
	movq	$0, -8(%rbp)
	.loc 1 556 0
	movq	-24(%rbp), %rax
	movq	%rax, -8(%rbp)
	.loc 1 558 0
	jmp	.L66
.L67:
	.loc 1 561 0
	movq	-8(%rbp), %rax
	movl	36(%rax), %ecx
	movq	-8(%rbp), %rax
	leaq	44(%rax), %rdi
	movq	-8(%rbp), %rax
	movl	40(%rax), %edx
	movq	-8(%rbp), %rax
	leaq	4(%rax), %rsi
	movq	-8(%rbp), %rax
	movl	(%rax), %eax
	movl	%ecx, %r9d
	movq	%rdi, %r8
	movl	%edx, %ecx
	movq	%rsi, %rdx
	movl	%eax, %esi
	movl	$.LC26, %edi
	movl	$0, %eax
	call	printf
	.loc 1 563 0
	movq	-8(%rbp), %rax
	movq	112(%rax), %rax
	movq	%rax, -8(%rbp)
.L66:
	.loc 1 558 0
	cmpq	$0, -8(%rbp)
	jne	.L67
	.loc 1 565 0
	movl	$0, %eax
	.loc 1 566 0
	leave
	.cfi_def_cfa 7, 8
	ret
	.cfi_endproc
.LFE7:
	.size	show, .-show
	.section	.rodata
.LC27:
	.string	"./log"
.LC28:
	.string	"open"
.LC29:
	.string	"buf:%s"
.LC30:
	.string	"open sucess"
	.align 8
.LC31:
	.string	"\346\227\266\351\227\264:%02d-%02d-%04d %02d:%02d:%02d\tid:%d\tip:%s\tport:%d\t\346\226\255\345\274\200\n"
	.text
	.globl	close_file
	.type	close_file, @function
close_file:
.LFB8:
	.loc 1 570 0
	.cfi_startproc
	pushq	%rbp
	.cfi_def_cfa_offset 16
	.cfi_offset 6, -16
	movq	%rsp, %rbp
	.cfi_def_cfa_register 6
	pushq	%rbx
	subq	$1352, %rsp
	.cfi_offset 3, -24
	movq	%rdi, -1352(%rbp)
	movl	%esi, -1356(%rbp)
	.loc 1 570 0
	movq	%fs:40, %rax
	movq	%rax, -24(%rbp)
	xorl	%eax, %eax
	.loc 1 574 0
	movq	$0, -1328(%rbp)
	.loc 1 576 0
	movq	-1352(%rbp), %rax
	movq	%rax, -1328(%rbp)
	.loc 1 578 0
	jmp	.L70
.L73:
	.loc 1 580 0
	movq	-1328(%rbp), %rax
	movl	36(%rax), %eax
	cmpl	-1356(%rbp), %eax
	je	.L77
	.loc 1 583 0
	movq	-1328(%rbp), %rax
	movq	112(%rax), %rax
	movq	%rax, -1328(%rbp)
.L70:
	.loc 1 578 0
	cmpq	$0, -1328(%rbp)
	jne	.L73
	jmp	.L72
.L77:
	.loc 1 581 0
	nop
.L72:
	.loc 1 590 0
	leaq	-1336(%rbp), %rax
	movq	%rax, %rdi
	call	time
	.loc 1 592 0
	leaq	-1336(%rbp), %rax
	movq	%rax, %rdi
	call	localtime
	movq	%rax, -1320(%rbp)
	.loc 1 596 0
	movl	$1025, %esi
	movl	$.LC27, %edi
	movl	$0, %eax
	call	open
	movl	%eax, -1340(%rbp)
	.loc 1 598 0
	cmpl	$0, -1340(%rbp)
	jns	.L74
	.loc 1 600 0
	movl	$.LC28, %edi
	call	perror
	.loc 1 601 0
	movl	$-1, %eax
	jmp	.L69
.L74:
	.loc 1 606 0
	leaq	-1312(%rbp), %rax
	movl	$1634038370, (%rax)
	movw	$107, 4(%rax)
	.loc 1 608 0
	movq	-1352(%rbp), %rdx
	leaq	-1312(%rbp), %rcx
	movl	-1356(%rbp), %eax
	movq	%rcx, %rsi
	movl	%eax, %edi
	call	mysql_record
	.loc 1 610 0
	leaq	-1312(%rbp), %rax
	movq	%rax, %rsi
	movl	$.LC29, %edi
	movl	$0, %eax
	call	printf
	.loc 1 612 0
	movl	$.LC30, %edi
	call	puts
	.loc 1 616 0
	movq	-1328(%rbp), %rax
	movl	40(%rax), %r8d
	movq	-1328(%rbp), %rax
	leaq	44(%rax), %r11
	movq	-1328(%rbp), %rax
	movl	(%rax), %edi
	movq	-1320(%rbp), %rax
	movl	(%rax), %esi
	movq	-1320(%rbp), %rax
	movl	4(%rax), %ecx
	movq	-1320(%rbp), %rax
	movl	8(%rax), %r9d
	movq	-1320(%rbp), %rax
	movl	20(%rax), %eax
	leal	1900(%rax), %ebx
	movq	-1320(%rbp), %rax
	movl	12(%rax), %edx
	movq	-1320(%rbp), %rax
	movl	16(%rax), %eax
	leal	1(%rax), %r10d
	leaq	-1056(%rbp), %rax
	subq	$8, %rsp
	pushq	%r8
	pushq	%r11
	pushq	%rdi
	pushq	%rsi
	pushq	%rcx
	movl	%ebx, %r8d
	movl	%edx, %ecx
	movl	%r10d, %edx
	movl	$.LC31, %esi
	movq	%rax, %rdi
	movl	$0, %eax
	call	sprintf
	addq	$48, %rsp
	.loc 1 618 0
	leaq	-1056(%rbp), %rax
	movq	%rax, %rdi
	call	strlen
	movq	%rax, %rdx
	leaq	-1056(%rbp), %rcx
	movl	-1340(%rbp), %eax
	movq	%rcx, %rsi
	movl	%eax, %edi
	call	write
	.loc 1 620 0
	movl	-1340(%rbp), %eax
	movl	%eax, %edi
	call	close
.L69:
	.loc 1 621 0
	movq	-24(%rbp), %rbx
	xorq	%fs:40, %rbx
	je	.L76
	call	__stack_chk_fail
.L76:
	movq	-8(%rbp), %rbx
	leave
	.cfi_def_cfa 7, 8
	ret
	.cfi_endproc
.LFE8:
	.size	close_file, .-close_file
	.section	.rodata
	.align 8
.LC32:
	.string	"\346\227\266\351\227\264:%02d-%02d-%04d %02d:%02d:%02d\tid:%d\tip:%s\tport:%d\t\347\231\273\345\275\225\n"
	.text
	.globl	open_file
	.type	open_file, @function
open_file:
.LFB9:
	.loc 1 626 0
	.cfi_startproc
	pushq	%rbp
	.cfi_def_cfa_offset 16
	.cfi_offset 6, -16
	movq	%rsp, %rbp
	.cfi_def_cfa_register 6
	pushq	%rbx
	subq	$1352, %rsp
	.cfi_offset 3, -24
	movq	%rdi, -1352(%rbp)
	.loc 1 626 0
	movq	%fs:40, %rax
	movq	%rax, -24(%rbp)
	xorl	%eax, %eax
	.loc 1 633 0
	leaq	-1328(%rbp), %rax
	movq	%rax, %rdi
	call	time
	.loc 1 635 0
	leaq	-1328(%rbp), %rax
	movq	%rax, %rdi
	call	localtime
	movq	%rax, -1320(%rbp)
	.loc 1 639 0
	movl	$1025, %esi
	movl	$.LC27, %edi
	movl	$0, %eax
	call	open
	movl	%eax, -1336(%rbp)
	.loc 1 641 0
	cmpl	$0, -1336(%rbp)
	jns	.L79
	.loc 1 643 0
	movl	$.LC28, %edi
	call	perror
	.loc 1 644 0
	movl	$-1, %eax
	jmp	.L78
.L79:
	.loc 1 649 0
	movq	-1352(%rbp), %rax
	movl	36(%rax), %eax
	movl	%eax, -1332(%rbp)
	.loc 1 651 0
	leaq	-1312(%rbp), %rax
	movabsq	$32760384594014051, %rbx
	movq	%rbx, (%rax)
	.loc 1 653 0
	movq	-1352(%rbp), %rdx
	leaq	-1312(%rbp), %rcx
	movl	-1332(%rbp), %eax
	movq	%rcx, %rsi
	movl	%eax, %edi
	call	mysql_record
	.loc 1 655 0
	movl	$.LC30, %edi
	call	puts
	.loc 1 659 0
	movq	-1352(%rbp), %rax
	movl	40(%rax), %r8d
	movq	-1352(%rbp), %rax
	leaq	44(%rax), %r11
	movq	-1352(%rbp), %rax
	movl	(%rax), %edi
	movq	-1320(%rbp), %rax
	movl	(%rax), %esi
	movq	-1320(%rbp), %rax
	movl	4(%rax), %ecx
	movq	-1320(%rbp), %rax
	movl	8(%rax), %r9d
	movq	-1320(%rbp), %rax
	movl	20(%rax), %eax
	leal	1900(%rax), %ebx
	movq	-1320(%rbp), %rax
	movl	12(%rax), %edx
	movq	-1320(%rbp), %rax
	movl	16(%rax), %eax
	leal	1(%rax), %r10d
	leaq	-1056(%rbp), %rax
	subq	$8, %rsp
	pushq	%r8
	pushq	%r11
	pushq	%rdi
	pushq	%rsi
	pushq	%rcx
	movl	%ebx, %r8d
	movl	%edx, %ecx
	movl	%r10d, %edx
	movl	$.LC32, %esi
	movq	%rax, %rdi
	movl	$0, %eax
	call	sprintf
	addq	$48, %rsp
	.loc 1 661 0
	leaq	-1056(%rbp), %rax
	movq	%rax, %rdi
	call	strlen
	movq	%rax, %rdx
	leaq	-1056(%rbp), %rcx
	movl	-1336(%rbp), %eax
	movq	%rcx, %rsi
	movl	%eax, %edi
	call	write
	.loc 1 663 0
	movl	-1336(%rbp), %eax
	movl	%eax, %edi
	call	close
.L78:
	.loc 1 664 0
	movq	-24(%rbp), %rbx
	xorq	%fs:40, %rbx
	je	.L81
	call	__stack_chk_fail
.L81:
	movq	-8(%rbp), %rbx
	leave
	.cfi_def_cfa 7, 8
	ret
	.cfi_endproc
.LFE9:
	.size	open_file, .-open_file
	.section	.rodata
.LC33:
	.string	"tcp broken"
.LC34:
	.string	"%d\t%s\n"
	.align 8
.LC35:
	.string	"select * from msg where num= %d and passwd='%s'"
	.text
	.globl	mysql_read
	.type	mysql_read, @function
mysql_read:
.LFB10:
	.loc 1 669 0
	.cfi_startproc
	pushq	%rbp
	.cfi_def_cfa_offset 16
	.cfi_offset 6, -16
	movq	%rsp, %rbp
	.cfi_def_cfa_register 6
	subq	$288, %rsp
	movq	%rdi, -264(%rbp)
	movl	%esi, -268(%rbp)
	movq	%rdx, -288(%rbp)
	.loc 1 669 0
	movq	%fs:40, %rax
	movq	%rax, -8(%rbp)
	xorl	%eax, %eax
	.loc 1 677 0
	movq	$0, -248(%rbp)
	.loc 1 677 0
	movq	$0, -240(%rbp)
	.loc 1 679 0
	movq	-264(%rbp), %rax
	movq	(%rax), %rax
	movq	%rax, -248(%rbp)
	.loc 1 681 0
	movq	-264(%rbp), %rax
	movq	(%rax), %rax
	movq	%rax, -240(%rbp)
	.loc 1 685 0
	movl	$mysql, %edi
	call	mysql_init
	.loc 1 685 0
	testq	%rax, %rax
	jne	.L83
	.loc 1 687 0
	movl	$.LC1, %edi
	call	puts
	.loc 1 688 0
	movl	$0, %eax
	jmp	.L82
.L83:
	.loc 1 691 0
	pushq	$0
	pushq	$0
	movl	$0, %r9d
	movl	$.LC2, %r8d
	movl	$.LC3, %ecx
	movl	$.LC4, %edx
	movl	$.LC5, %esi
	movl	$mysql, %edi
	call	mysql_real_connect
	addq	$16, %rsp
	.loc 1 691 0
	testq	%rax, %rax
	jne	.L85
	.loc 1 693 0
	movl	$mysql, %edi
	call	mysql_error
	movq	%rax, %rdi
	call	puts
	.loc 1 694 0
	movl	$0, %eax
	jmp	.L82
.L85:
	.loc 1 697 0
	movl	$.LC6, %edi
	call	puts
	.loc 1 699 0
	movl	-284(%rbp), %eax
	movslq	%eax, %rdx
	leaq	-224(%rbp), %rcx
	movl	-268(%rbp), %eax
	movq	%rcx, %rsi
	movl	%eax, %edi
	call	read
	movl	%eax, -256(%rbp)
	.loc 1 705 0
	cmpl	$0, -256(%rbp)
	jne	.L86
	.loc 1 707 0
	movl	$.LC33, %edi
	call	puts
	.loc 1 708 0
	movl	$-1, %eax
	jmp	.L82
.L86:
.LBB4:
	.loc 1 712 0
	movl	-192(%rbp), %eax
	leaq	-224(%rbp), %rdx
	addq	$36, %rdx
	movl	%eax, %esi
	movl	$.LC34, %edi
	movl	$0, %eax
	call	printf
	.loc 1 714 0
	movl	-192(%rbp), %edx
	leaq	-224(%rbp), %rax
	leaq	36(%rax), %rcx
	leaq	-144(%rbp), %rax
	movl	$.LC35, %esi
	movq	%rax, %rdi
	movl	$0, %eax
	call	sprintf
	.loc 1 716 0
	leaq	-144(%rbp), %rax
	movq	%rax, %rsi
	movl	$mysql, %edi
	call	mysql_query
	testl	%eax, %eax
	je	.L87
	.loc 1 718 0
	movl	$mysql, %edi
	call	mysql_error
	movq	%rax, %rdi
	call	puts
	.loc 1 719 0
	movl	$-1, %eax
	jmp	.L82
.L87:
	.loc 1 722 0
	movq	$0, -232(%rbp)
	.loc 1 724 0
	movl	$0, -252(%rbp)
	.loc 1 726 0
	movl	$mysql, %edi
	call	mysql_store_result
	movq	%rax, -232(%rbp)
	.loc 1 730 0
	cmpq	$0, -232(%rbp)
	je	.L88
	.loc 1 733 0
	movq	-232(%rbp), %rax
	movq	%rax, %rdi
	call	mysql_num_rows
	movl	%eax, -252(%rbp)
	.loc 1 735 0
	cmpl	$1, -252(%rbp)
	jne	.L89
	.loc 1 738 0
	jmp	.L90
.L92:
	.loc 1 740 0
	movq	-248(%rbp), %rax
	movl	(%rax), %edx
	movl	-192(%rbp), %eax
	cmpl	%eax, %edx
	jne	.L91
	.loc 1 742 0
	movl	$2, -252(%rbp)
	.loc 1 743 0
	movl	-252(%rbp), %eax
	jmp	.L82
.L91:
	.loc 1 746 0
	movq	-248(%rbp), %rax
	movq	112(%rax), %rax
	movq	%rax, -248(%rbp)
.L90:
	.loc 1 738 0
	cmpq	$0, -248(%rbp)
	jne	.L92
	.loc 1 750 0
	jmp	.L93
.L95:
	.loc 1 752 0
	movq	-240(%rbp), %rax
	movl	36(%rax), %eax
	cmpl	-268(%rbp), %eax
	jne	.L94
	.loc 1 754 0
	movl	-192(%rbp), %edx
	movq	-240(%rbp), %rax
	movl	%edx, (%rax)
	.loc 1 756 0
	movq	-240(%rbp), %rax
	addq	$4, %rax
	leaq	-224(%rbp), %rdx
	addq	$36, %rdx
	movq	%rdx, %rsi
	movq	%rax, %rdi
	call	strcpy
	.loc 1 758 0
	movq	-240(%rbp), %rax
	movq	%rax, %rdi
	call	open_file
	.loc 1 760 0
	jmp	.L89
.L94:
	.loc 1 763 0
	movq	-240(%rbp), %rax
	movq	112(%rax), %rax
	movq	%rax, -240(%rbp)
.L93:
	.loc 1 750 0
	cmpq	$0, -240(%rbp)
	jne	.L95
.L89:
	.loc 1 769 0
	movl	$mysql, %edi
	call	mysql_close
	.loc 1 771 0
	movl	-252(%rbp), %eax
	jmp	.L82
.L88:
.L82:
.LBE4:
	.loc 1 774 0
	movq	-8(%rbp), %rcx
	xorq	%fs:40, %rcx
	je	.L97
	call	__stack_chk_fail
.L97:
	leave
	.cfi_def_cfa 7, 8
	ret
	.cfi_endproc
.LFE10:
	.size	mysql_read, .-mysql_read
	.globl	log_ok
	.type	log_ok, @function
log_ok:
.LFB11:
	.loc 1 780 0
	.cfi_startproc
	pushq	%rbp
	.cfi_def_cfa_offset 16
	.cfi_offset 6, -16
	movq	%rsp, %rbp
	.cfi_def_cfa_register 6
	addq	$-128, %rsp
	movq	%rdi, -104(%rbp)
	movl	%esi, -108(%rbp)
	movq	%rdx, -128(%rbp)
	.loc 1 780 0
	movq	%fs:40, %rax
	movq	%rax, -8(%rbp)
	xorl	%eax, %eax
	.loc 1 786 0
	movl	-128(%rbp), %eax
	cmpl	$41, %eax
	jne	.L99
	.loc 1 789 0
	movq	-128(%rbp), %rdx
	movl	-108(%rbp), %ecx
	movq	-104(%rbp), %rax
	movl	%ecx, %esi
	movq	%rax, %rdi
	call	mysql_read
	movl	%eax, -84(%rbp)
	.loc 1 791 0
	cmpl	$1, -84(%rbp)
	jne	.L100
	.loc 1 794 0
	movl	$42, -88(%rbp)
	.loc 1 796 0
	leaq	-88(%rbp), %rcx
	movl	-108(%rbp), %eax
	movl	$4, %edx
	movq	%rcx, %rsi
	movl	%eax, %edi
	call	write
	.loc 1 798 0
	movl	$0, %eax
	jmp	.L98
.L100:
	.loc 1 802 0
	movl	$43, -88(%rbp)
	.loc 1 804 0
	leaq	-88(%rbp), %rcx
	movl	-108(%rbp), %eax
	movl	$4, %edx
	movq	%rcx, %rsi
	movl	%eax, %edi
	call	write
	.loc 1 806 0
	movl	$0, %eax
	jmp	.L98
.L99:
.L98:
	.loc 1 809 0
	movq	-8(%rbp), %rsi
	xorq	%fs:40, %rsi
	je	.L103
	call	__stack_chk_fail
.L103:
	leave
	.cfi_def_cfa 7, 8
	ret
	.cfi_endproc
.LFE11:
	.size	log_ok, .-log_ok
	.section	.rodata
	.align 8
.LC36:
	.string	"delete from  msg  where  num=%d and passwd='%s'"
	.text
	.globl	mysql_exit
	.type	mysql_exit, @function
mysql_exit:
.LFB12:
	.loc 1 815 0
	.cfi_startproc
	pushq	%rbp
	.cfi_def_cfa_offset 16
	.cfi_offset 6, -16
	movq	%rsp, %rbp
	.cfi_def_cfa_register 6
	subq	$528, %rsp
	movl	%edi, -500(%rbp)
	movq	%rsi, -512(%rbp)
	movq	%rdx, -520(%rbp)
	.loc 1 815 0
	movq	%fs:40, %rax
	movq	%rax, -8(%rbp)
	xorl	%eax, %eax
	.loc 1 817 0
	movq	-520(%rbp), %rax
	movq	(%rax), %rax
	movq	%rax, -488(%rbp)
	.loc 1 823 0
	leaq	-272(%rbp), %rax
	movl	$1869049708, (%rax)
	movw	$29813, 4(%rax)
	movb	$0, 6(%rax)
	.loc 1 825 0
	movq	-488(%rbp), %rdx
	leaq	-272(%rbp), %rcx
	movl	-500(%rbp), %eax
	movq	%rcx, %rsi
	movl	%eax, %edi
	call	mysql_record
	.loc 1 831 0
	jmp	.L105
.L108:
	.loc 1 833 0
	movq	-488(%rbp), %rax
	movl	36(%rax), %eax
	cmpl	-500(%rbp), %eax
	je	.L115
	.loc 1 836 0
	movq	-488(%rbp), %rax
	movq	112(%rax), %rax
	movq	%rax, -488(%rbp)
.L105:
	.loc 1 831 0
	cmpq	$0, -488(%rbp)
	jne	.L108
	jmp	.L107
.L115:
	.loc 1 834 0
	nop
.L107:
	.loc 1 839 0
	movq	-488(%rbp), %rax
	movl	36(%rax), %ecx
	movq	-488(%rbp), %rax
	leaq	44(%rax), %rdi
	movq	-488(%rbp), %rax
	movl	40(%rax), %edx
	movq	-488(%rbp), %rax
	leaq	4(%rax), %rsi
	movq	-488(%rbp), %rax
	movl	(%rax), %eax
	movl	%ecx, %r9d
	movq	%rdi, %r8
	movl	%edx, %ecx
	movq	%rsi, %rdx
	movl	%eax, %esi
	movl	$.LC26, %edi
	movl	$0, %eax
	call	printf
	.loc 1 841 0
	movl	$mysql, %edi
	call	mysql_init
	.loc 1 841 0
	testq	%rax, %rax
	jne	.L109
	.loc 1 843 0
	movl	$.LC1, %edi
	call	puts
	.loc 1 844 0
	movl	$0, %eax
	jmp	.L104
.L109:
	.loc 1 847 0
	pushq	$0
	pushq	$0
	movl	$0, %r9d
	movl	$.LC2, %r8d
	movl	$.LC3, %ecx
	movl	$.LC4, %edx
	movl	$.LC5, %esi
	movl	$mysql, %edi
	call	mysql_real_connect
	addq	$16, %rsp
	.loc 1 847 0
	testq	%rax, %rax
	jne	.L111
	.loc 1 849 0
	movl	$mysql, %edi
	call	mysql_error
	movq	%rax, %rdi
	call	puts
	.loc 1 850 0
	movl	$0, %eax
	jmp	.L104
.L111:
	.loc 1 853 0
	movl	$.LC6, %edi
	call	puts
	.loc 1 855 0
	movq	-488(%rbp), %rax
	leaq	4(%rax), %rcx
	movq	-488(%rbp), %rax
	movl	(%rax), %edx
	leaq	-400(%rbp), %rax
	movl	$.LC36, %esi
	movq	%rax, %rdi
	movl	$0, %eax
	call	sprintf
	.loc 1 856 0
	leaq	-400(%rbp), %rax
	movq	%rax, %rsi
	movl	$mysql, %edi
	call	mysql_query
	testl	%eax, %eax
	je	.L112
	.loc 1 858 0
	movl	$mysql, %edi
	call	mysql_error
	movl	$858, %edx
	movq	%rax, %rsi
	movl	$.LC23, %edi
	movl	$0, %eax
	call	printf
	.loc 1 859 0
	movl	$-1, %eax
	jmp	.L104
.L112:
	.loc 1 863 0
	movl	$mysql, %edi
	call	mysql_close
.L104:
	.loc 1 864 0
	movq	-8(%rbp), %rcx
	xorq	%fs:40, %rcx
	je	.L114
	call	__stack_chk_fail
.L114:
	leave
	.cfi_def_cfa 7, 8
	ret
	.cfi_endproc
.LFE12:
	.size	mysql_exit, .-mysql_exit
	.section	.rodata
.LC37:
	.string	"exit"
.LC38:
	.string	"ret:%d,a:%c\t,lenth:%d\n"
.LC39:
	.string	"tcp broken %d\n"
.LC40:
	.string	"%d,%d\n"
	.text
	.globl	exit_ok
	.type	exit_ok, @function
exit_ok:
.LFB13:
	.loc 1 867 0
	.cfi_startproc
	pushq	%rbp
	.cfi_def_cfa_offset 16
	.cfi_offset 6, -16
	movq	%rsp, %rbp
	.cfi_def_cfa_register 6
	subq	$64, %rsp
	movl	%edi, -36(%rbp)
	movq	%rsi, -48(%rbp)
	movq	%rdx, -56(%rbp)
	.loc 1 867 0
	movq	%fs:40, %rax
	movq	%rax, -8(%rbp)
	xorl	%eax, %eax
	.loc 1 873 0
	movl	$.LC37, %edi
	call	puts
	.loc 1 875 0
	movl	-44(%rbp), %eax
	movslq	%eax, %rdx
	leaq	-17(%rbp), %rcx
	movl	-36(%rbp), %eax
	movq	%rcx, %rsi
	movl	%eax, %edi
	call	read
	movl	%eax, -12(%rbp)
	.loc 1 877 0
	movl	-44(%rbp), %ecx
	movzbl	-17(%rbp), %eax
	movsbl	%al, %edx
	movl	-12(%rbp), %eax
	movl	%eax, %esi
	movl	$.LC38, %edi
	movl	$0, %eax
	call	printf
	.loc 1 883 0
	cmpl	$0, -12(%rbp)
	jne	.L117
	.loc 1 885 0
	movl	$885, %esi
	movl	$.LC39, %edi
	movl	$0, %eax
	call	printf
	.loc 1 886 0
	movl	$-1, %eax
	jmp	.L121
.L117:
	.loc 1 887 0
	cmpl	$0, -12(%rbp)
	jle	.L119
	.loc 1 889 0
	movzbl	-17(%rbp), %eax
	cmpb	$121, %al
	jne	.L119
	.loc 1 892 0
	movq	-56(%rbp), %rdx
	movq	-48(%rbp), %rcx
	movl	-36(%rbp), %eax
	movq	%rcx, %rsi
	movl	%eax, %edi
	call	mysql_exit
	movl	%eax, -12(%rbp)
	.loc 1 894 0
	movl	-12(%rbp), %eax
	movl	$894, %edx
	movl	%eax, %esi
	movl	$.LC40, %edi
	movl	$0, %eax
	call	printf
	.loc 1 895 0
	cmpl	$-1, -12(%rbp)
	jne	.L120
	.loc 1 897 0
	movl	$53, -16(%rbp)
	.loc 1 899 0
	leaq	-16(%rbp), %rcx
	movl	-36(%rbp), %eax
	movl	$4, %edx
	movq	%rcx, %rsi
	movl	%eax, %edi
	call	write
	jmp	.L119
.L120:
	.loc 1 903 0
	movl	$52, -16(%rbp)
	.loc 1 904 0
	leaq	-16(%rbp), %rcx
	movl	-36(%rbp), %eax
	movl	$4, %edx
	movq	%rcx, %rsi
	movl	%eax, %edi
	call	write
.L119:
	.loc 1 910 0
	movl	$0, %eax
.L121:
	.loc 1 911 0 discriminator 1
	movq	-8(%rbp), %rsi
	xorq	%fs:40, %rsi
	je	.L122
	.loc 1 911 0 is_stmt 0
	call	__stack_chk_fail
.L122:
	leave
	.cfi_def_cfa 7, 8
	ret
	.cfi_endproc
.LFE13:
	.size	exit_ok, .-exit_ok
	.section	.rodata
.LC41:
	.string	"ret:%d,lenth:%d\n"
	.align 8
.LC42:
	.string	"insert into msg  values (%d,'%s','%s')"
	.text
	.globl	mysql_write
	.type	mysql_write, @function
mysql_write:
.LFB14:
	.loc 1 917 0 is_stmt 1
	.cfi_startproc
	pushq	%rbp
	.cfi_def_cfa_offset 16
	.cfi_offset 6, -16
	movq	%rsp, %rbp
	.cfi_def_cfa_register 6
	subq	$256, %rsp
	movl	%edi, -244(%rbp)
	movq	%rsi, -256(%rbp)
	.loc 1 917 0
	movq	%fs:40, %rax
	movq	%rax, -8(%rbp)
	xorl	%eax, %eax
	.loc 1 925 0
	movl	$mysql, %edi
	call	mysql_init
	.loc 1 925 0
	testq	%rax, %rax
	jne	.L124
	.loc 1 927 0
	movl	$.LC1, %edi
	call	puts
	.loc 1 928 0
	movl	$0, %eax
	jmp	.L123
.L124:
	.loc 1 931 0
	pushq	$0
	pushq	$0
	movl	$0, %r9d
	movl	$.LC2, %r8d
	movl	$.LC3, %ecx
	movl	$.LC4, %edx
	movl	$.LC5, %esi
	movl	$mysql, %edi
	call	mysql_real_connect
	addq	$16, %rsp
	.loc 1 931 0
	testq	%rax, %rax
	jne	.L126
	.loc 1 933 0
	movl	$mysql, %edi
	call	mysql_error
	movq	%rax, %rdi
	call	puts
	.loc 1 934 0
	movl	$0, %eax
	jmp	.L123
.L126:
	.loc 1 937 0
	movl	$.LC6, %edi
	call	puts
	.loc 1 939 0
	movl	-252(%rbp), %eax
	movslq	%eax, %rdx
	leaq	-224(%rbp), %rcx
	movl	-244(%rbp), %eax
	movq	%rcx, %rsi
	movl	%eax, %edi
	call	read
	movl	%eax, -228(%rbp)
	.loc 1 941 0
	movl	-252(%rbp), %edx
	movl	-228(%rbp), %eax
	movl	%eax, %esi
	movl	$.LC41, %edi
	movl	$0, %eax
	call	printf
	.loc 1 947 0
	cmpl	$0, -228(%rbp)
	jne	.L127
	.loc 1 949 0
	movl	$949, %esi
	movl	$.LC39, %edi
	movl	$0, %eax
	call	printf
	.loc 1 950 0
	movl	$-1, %eax
	jmp	.L123
.L127:
	.loc 1 954 0
	movl	-192(%rbp), %edx
	leaq	-224(%rbp), %rax
	leaq	36(%rax), %rsi
	leaq	-224(%rbp), %rcx
	leaq	-144(%rbp), %rax
	movq	%rsi, %r8
	movl	$.LC42, %esi
	movq	%rax, %rdi
	movl	$0, %eax
	call	sprintf
	.loc 1 956 0
	leaq	-144(%rbp), %rax
	movq	%rax, %rsi
	movl	$mysql, %edi
	call	mysql_query
	testl	%eax, %eax
	je	.L128
	.loc 1 958 0
	movl	$mysql, %edi
	call	mysql_error
	movl	$958, %edx
	movq	%rax, %rsi
	movl	$.LC23, %edi
	movl	$0, %eax
	call	printf
	.loc 1 959 0
	movl	$-1, %eax
	jmp	.L123
.L128:
	.loc 1 963 0
	movl	$mysql, %edi
	call	mysql_close
.L123:
	.loc 1 964 0
	movq	-8(%rbp), %rcx
	xorq	%fs:40, %rcx
	je	.L130
	call	__stack_chk_fail
.L130:
	leave
	.cfi_def_cfa 7, 8
	ret
	.cfi_endproc
.LFE14:
	.size	mysql_write, .-mysql_write
	.section	.rodata
.LC43:
	.string	"reg"
	.text
	.globl	reg_ok
	.type	reg_ok, @function
reg_ok:
.LFB15:
	.loc 1 967 0
	.cfi_startproc
	pushq	%rbp
	.cfi_def_cfa_offset 16
	.cfi_offset 6, -16
	movq	%rsp, %rbp
	.cfi_def_cfa_register 6
	subq	$32, %rsp
	movl	%edi, -20(%rbp)
	movq	%rsi, -32(%rbp)
	.loc 1 967 0
	movq	%fs:40, %rax
	movq	%rax, -8(%rbp)
	xorl	%eax, %eax
	.loc 1 971 0
	movl	$.LC43, %edi
	call	puts
	.loc 1 973 0
	movq	-32(%rbp), %rdx
	movl	-20(%rbp), %eax
	movq	%rdx, %rsi
	movl	%eax, %edi
	call	mysql_write
	movl	%eax, -12(%rbp)
	.loc 1 975 0
	movl	-12(%rbp), %eax
	movl	$975, %edx
	movl	%eax, %esi
	movl	$.LC40, %edi
	movl	$0, %eax
	call	printf
	.loc 1 977 0
	cmpl	$-1, -12(%rbp)
	je	.L132
	.loc 1 979 0
	movl	$12, -16(%rbp)
	.loc 1 981 0
	leaq	-16(%rbp), %rcx
	movl	-20(%rbp), %eax
	movl	$4, %edx
	movq	%rcx, %rsi
	movl	%eax, %edi
	call	write
	jmp	.L133
.L132:
	.loc 1 985 0
	movl	$13, -16(%rbp)
	.loc 1 987 0
	leaq	-16(%rbp), %rcx
	movl	-20(%rbp), %eax
	movl	$4, %edx
	movq	%rcx, %rsi
	movl	%eax, %edi
	call	write
.L133:
	.loc 1 990 0
	movl	$0, %eax
	.loc 1 992 0
	movq	-8(%rbp), %rcx
	xorq	%fs:40, %rcx
	je	.L135
	call	__stack_chk_fail
.L135:
	leave
	.cfi_def_cfa 7, 8
	ret
	.cfi_endproc
.LFE15:
	.size	reg_ok, .-reg_ok
	.section	.rodata
.LC44:
	.string	"r"
.LC45:
	.string	"./server.conf"
.LC46:
	.string	"fopen failed."
.LC47:
	.string	"port"
.LC48:
	.string	"ip"
.LC49:
	.string	"%d\n"
.LC50:
	.string	"sockfd"
.LC51:
	.string	"bind"
.LC52:
	.string	"listen"
	.text
	.globl	socket_init
	.type	socket_init, @function
socket_init:
.LFB16:
	.loc 1 996 0
	.cfi_startproc
	pushq	%rbp
	.cfi_def_cfa_offset 16
	.cfi_offset 6, -16
	movq	%rsp, %rbp
	.cfi_def_cfa_register 6
	pushq	%rbx
	subq	$328, %rsp
	.cfi_offset 3, -24
	.loc 1 996 0
	movq	%fs:40, %rax
	movq	%rax, -24(%rbp)
	xorl	%eax, %eax
	.loc 1 1008 0
	movq	$0, -312(%rbp)
	.loc 1 1012 0
	movl	$.LC44, %esi
	movl	$.LC45, %edi
	call	fopen
	movq	%rax, -312(%rbp)
	.loc 1 1013 0
	cmpq	$0, -312(%rbp)
	jne	.L139
	.loc 1 1015 0
	movl	$.LC46, %edi
	call	puts
	.loc 1 1016 0
	movl	$-1, %eax
	jmp	.L153
.L149:
	.loc 1 1023 0
	leaq	-160(%rbp), %rax
	movl	$4, %edx
	movl	$.LC47, %esi
	movq	%rax, %rdi
	call	strncmp
	testl	%eax, %eax
	jne	.L140
	.loc 1 1025 0
	movl	$0, -332(%rbp)
	jmp	.L141
.L144:
	.loc 1 1027 0
	movl	-332(%rbp), %eax
	cltq
	movzbl	-160(%rbp,%rax), %eax
	cmpb	$47, %al
	jle	.L142
	.loc 1 1027 0 is_stmt 0 discriminator 1
	movl	-332(%rbp), %eax
	cltq
	movzbl	-160(%rbp,%rax), %eax
	cmpb	$57, %al
	jle	.L155
.L142:
	.loc 1 1025 0 is_stmt 1 discriminator 2
	addl	$1, -332(%rbp)
.L141:
	.loc 1 1025 0 is_stmt 0 discriminator 1
	movl	-332(%rbp), %eax
	movslq	%eax, %rbx
	leaq	-160(%rbp), %rax
	movq	%rax, %rdi
	call	strlen
	cmpq	%rax, %rbx
	jb	.L144
	jmp	.L143
.L155:
	.loc 1 1028 0 is_stmt 1
	nop
.L143:
	.loc 1 1031 0
	leaq	-160(%rbp), %rdx
	movl	-332(%rbp), %eax
	cltq
	addq	%rax, %rdx
	leaq	-160(%rbp), %rax
	movq	%rdx, %rsi
	movq	%rax, %rdi
	call	strcpy
	.loc 1 1033 0
	leaq	-160(%rbp), %rax
	movq	%rax, %rdi
	call	strlen
	subq	$1, %rax
	movb	$0, -160(%rbp,%rax)
	.loc 1 1035 0
	leaq	-160(%rbp), %rax
	movq	%rax, %rdi
	call	atoi
	movl	%eax, -336(%rbp)
	jmp	.L139
.L140:
	.loc 1 1037 0
	leaq	-160(%rbp), %rax
	movl	$2, %edx
	movl	$.LC48, %esi
	movq	%rax, %rdi
	call	strncmp
	testl	%eax, %eax
	jne	.L139
.LBB5:
	.loc 1 1039 0
	movl	$0, -328(%rbp)
	jmp	.L145
.L148:
	.loc 1 1041 0
	movl	-328(%rbp), %eax
	cltq
	movzbl	-160(%rbp,%rax), %eax
	cmpb	$47, %al
	jle	.L146
	.loc 1 1041 0 is_stmt 0 discriminator 1
	movl	-328(%rbp), %eax
	cltq
	movzbl	-160(%rbp,%rax), %eax
	cmpb	$57, %al
	jle	.L156
.L146:
	.loc 1 1039 0 is_stmt 1 discriminator 2
	addl	$1, -328(%rbp)
.L145:
	.loc 1 1039 0 is_stmt 0 discriminator 1
	movl	-328(%rbp), %eax
	movslq	%eax, %rbx
	leaq	-160(%rbp), %rax
	movq	%rax, %rdi
	call	strlen
	cmpq	%rax, %rbx
	jb	.L148
	jmp	.L147
.L156:
	.loc 1 1042 0 is_stmt 1
	nop
.L147:
.LBE5:
	.loc 1 1045 0
	leaq	-160(%rbp), %rdx
	movl	-332(%rbp), %eax
	cltq
	addq	%rax, %rdx
	leaq	-160(%rbp), %rax
	movq	%rdx, %rsi
	movq	%rax, %rdi
	call	strcpy
	.loc 1 1047 0
	leaq	-160(%rbp), %rax
	movq	%rax, %rdi
	call	strlen
	subq	$1, %rax
	movb	$0, -160(%rbp,%rax)
	.loc 1 1049 0
	leaq	-160(%rbp), %rdx
	leaq	-288(%rbp), %rax
	movq	%rdx, %rsi
	movq	%rax, %rdi
	call	strcpy
.L139:
	.loc 1 1021 0
	movq	-312(%rbp), %rdx
	leaq	-160(%rbp), %rax
	movl	$128, %esi
	movq	%rax, %rdi
	call	fgets
	testq	%rax, %rax
	jne	.L149
	.loc 1 1052 0
	movl	-336(%rbp), %eax
	movl	%eax, %esi
	movl	$.LC49, %edi
	movl	$0, %eax
	call	printf
	.loc 1 1054 0
	leaq	-288(%rbp), %rax
	movq	%rax, %rdi
	call	puts
	.loc 1 1056 0
	movl	$0, %edx
	movl	$1, %esi
	movl	$2, %edi
	call	socket
	movl	%eax, -324(%rbp)
	.loc 1 1058 0
	cmpl	$0, -324(%rbp)
	jne	.L150
	.loc 1 1060 0
	movl	$.LC50, %edi
	call	perror
	.loc 1 1061 0
	movl	$-1, %eax
	jmp	.L153
.L150:
	.loc 1 1063 0
	movl	$16, -320(%rbp)
	.loc 1 1065 0
	movw	$2, -304(%rbp)
	.loc 1 1067 0
	movl	-336(%rbp), %eax
	movzwl	%ax, %eax
	movl	%eax, %edi
	call	htons
	movw	%ax, -302(%rbp)
	.loc 1 1069 0
	leaq	-304(%rbp), %rax
	leaq	4(%rax), %rdx
	leaq	-288(%rbp), %rax
	movq	%rax, %rsi
	movl	$2, %edi
	call	inet_pton
	.loc 1 1071 0
	leaq	-304(%rbp), %rcx
	movl	-324(%rbp), %eax
	movl	$16, %edx
	movq	%rcx, %rsi
	movl	%eax, %edi
	call	bind
	movl	%eax, -316(%rbp)
	.loc 1 1072 0
	cmpl	$0, -316(%rbp)
	jns	.L151
	.loc 1 1074 0
	movl	$.LC51, %edi
	call	perror
	.loc 1 1075 0
	movl	$-1, %eax
	jmp	.L153
.L151:
	.loc 1 1077 0
	movl	$0, %eax
	call	make_daemon
	.loc 1 1078 0
	movl	-324(%rbp), %eax
	movl	$20, %esi
	movl	%eax, %edi
	call	listen
	movl	%eax, -316(%rbp)
	.loc 1 1079 0
	cmpl	$0, -316(%rbp)
	jns	.L152
	.loc 1 1081 0
	movl	$.LC52, %edi
	call	perror
	.loc 1 1082 0
	movl	$-1, %eax
	jmp	.L153
.L152:
	.loc 1 1085 0
	movl	-324(%rbp), %eax
.L153:
	.loc 1 1087 0 discriminator 1
	movq	-24(%rbp), %rcx
	xorq	%fs:40, %rcx
	je	.L154
	.loc 1 1087 0 is_stmt 0
	call	__stack_chk_fail
.L154:
	addq	$328, %rsp
	popq	%rbx
	popq	%rbp
	.cfi_def_cfa 7, 8
	ret
	.cfi_endproc
.LFE16:
	.size	socket_init, .-socket_init
	.globl	del_link
	.type	del_link, @function
del_link:
.LFB17:
	.loc 1 1091 0 is_stmt 1
	.cfi_startproc
	pushq	%rbp
	.cfi_def_cfa_offset 16
	.cfi_offset 6, -16
	movq	%rsp, %rbp
	.cfi_def_cfa_register 6
	subq	$48, %rsp
	movq	%rdi, -40(%rbp)
	movl	%esi, -44(%rbp)
	.loc 1 1093 0
	movq	$0, -24(%rbp)
	.loc 1 1095 0
	movq	-40(%rbp), %rax
	movq	(%rax), %rax
	movq	%rax, -24(%rbp)
	.loc 1 1097 0
	movq	$0, -8(%rbp)
	.loc 1 1099 0
	movl	$120, %edi
	call	malloc
	movq	%rax, -8(%rbp)
	.loc 1 1101 0
	jmp	.L158
.L164:
	.loc 1 1103 0
	movq	-24(%rbp), %rax
	movl	36(%rax), %eax
	cmpl	-44(%rbp), %eax
	jne	.L159
	.loc 1 1105 0
	movq	-24(%rbp), %rax
	movq	%rax, -8(%rbp)
	.loc 1 1106 0
	movq	-40(%rbp), %rax
	movq	(%rax), %rax
	cmpq	-24(%rbp), %rax
	jne	.L160
	.loc 1 1109 0
	movq	-24(%rbp), %rax
	movq	112(%rax), %rdx
	movq	-40(%rbp), %rax
	movq	%rdx, (%rax)
	.loc 1 1111 0
	movq	-8(%rbp), %rax
	movq	%rax, %rdi
	call	free
	.loc 1 1113 0
	jmp	.L161
.L160:
.LBB6:
	.loc 1 1117 0
	movq	-40(%rbp), %rax
	movq	(%rax), %rax
	movq	%rax, -16(%rbp)
	.loc 1 1119 0
	jmp	.L162
.L163:
	.loc 1 1121 0
	movq	-16(%rbp), %rax
	movq	112(%rax), %rax
	movq	%rax, -16(%rbp)
.L162:
	.loc 1 1119 0
	movq	-16(%rbp), %rax
	movq	112(%rax), %rax
	cmpq	-24(%rbp), %rax
	jne	.L163
	.loc 1 1123 0
	movq	-24(%rbp), %rax
	movq	112(%rax), %rdx
	movq	-16(%rbp), %rax
	movq	%rdx, 112(%rax)
	.loc 1 1125 0
	movq	-8(%rbp), %rax
	movq	%rax, %rdi
	call	free
	.loc 1 1127 0
	jmp	.L161
.L159:
.LBE6:
	.loc 1 1130 0
	movq	-24(%rbp), %rax
	movq	112(%rax), %rax
	movq	%rax, -24(%rbp)
.L158:
	.loc 1 1101 0
	cmpq	$0, -24(%rbp)
	jne	.L164
.L161:
	.loc 1 1133 0
	nop
	leave
	.cfi_def_cfa 7, 8
	ret
	.cfi_endproc
.LFE17:
	.size	del_link, .-del_link
	.section	.rodata
.LC53:
	.string	"epoll_create"
.LC54:
	.string	"epoll_ctl"
.LC55:
	.string	"wait"
.LC56:
	.string	"epoll_wait"
.LC57:
	.string	"accept"
	.align 8
.LC58:
	.string	"\345\256\242\346\210\267\347\253\257[%d|%s]\350\277\236\346\216\245\346\210\220\345\212\237\357\274\201\n"
.LC59:
	.string	"read error%d\n"
	.text
	.globl	main
	.type	main, @function
main:
.LFB18:
	.loc 1 1136 0
	.cfi_startproc
	pushq	%rbp
	.cfi_def_cfa_offset 16
	.cfi_offset 6, -16
	movq	%rsp, %rbp
	.cfi_def_cfa_register 6
	subq	$1328, %rsp
	.loc 1 1136 0
	movq	%fs:40, %rax
	movq	%rax, -8(%rbp)
	xorl	%eax, %eax
	.loc 1 1140 0
	movl	$0, %eax
	call	socket_init
	movl	%eax, -1320(%rbp)
	.loc 1 1142 0
	movq	$0, -1296(%rbp)
	.loc 1 1142 0
	movq	$0, -1288(%rbp)
	.loc 1 1142 0
	movq	$0, -1280(%rbp)
	.loc 1 1142 0
	movq	$0, -1272(%rbp)
	.loc 1 1146 0
	movl	$16, -1328(%rbp)
	.loc 1 1152 0
	movl	$100, %edi
	call	epoll_create
	movl	%eax, -1316(%rbp)
	.loc 1 1154 0
	cmpl	$0, -1316(%rbp)
	jns	.L166
	.loc 1 1156 0
	movl	$.LC53, %edi
	call	perror
	.loc 1 1158 0
	movl	-1320(%rbp), %eax
	movl	%eax, %edi
	call	close
	.loc 1 1160 0
	movl	$-1, %eax
	jmp	.L178
.L166:
	.loc 1 1163 0
	movl	$1, -1264(%rbp)
	.loc 1 1165 0
	movl	-1320(%rbp), %eax
	movl	%eax, -1260(%rbp)
	.loc 1 1167 0
	leaq	-1264(%rbp), %rcx
	movl	-1320(%rbp), %edx
	movl	-1316(%rbp), %eax
	movl	$1, %esi
	movl	%eax, %edi
	call	epoll_ctl
	movl	%eax, -1312(%rbp)
	.loc 1 1168 0
	cmpl	$0, -1312(%rbp)
	jns	.L168
	.loc 1 1170 0
	movl	$.LC54, %edi
	call	perror
	.loc 1 1171 0
	movl	$-1, %eax
	jmp	.L178
.L168:
	.loc 1 1176 0
	movl	$.LC55, %edi
	call	puts
	.loc 1 1178 0
	leaq	-1216(%rbp), %rsi
	movl	-1316(%rbp), %eax
	movl	$-1, %ecx
	movl	$10, %edx
	movl	%eax, %edi
	call	epoll_wait
	movl	%eax, -1308(%rbp)
	.loc 1 1179 0
	cmpl	$0, -1308(%rbp)
	jns	.L169
	.loc 1 1181 0
	movl	$.LC56, %edi
	call	perror
	.loc 1 1182 0
	movl	$-1, %eax
	jmp	.L178
.L169:
.LBB7:
	.loc 1 1185 0
	movl	$0, -1324(%rbp)
	jmp	.L170
.L177:
	.loc 1 1187 0
	movl	-1324(%rbp), %eax
	movslq	%eax, %rdx
	movq	%rdx, %rax
	addq	%rax, %rax
	addq	%rdx, %rax
	salq	$2, %rax
	addq	%rbp, %rax
	subq	$1212, %rax
	movl	(%rax), %eax
	movl	%eax, -1304(%rbp)
	.loc 1 1188 0
	movl	-1304(%rbp), %eax
	cmpl	-1320(%rbp), %eax
	jne	.L171
	.loc 1 1190 0
	movl	$120, %edi
	call	malloc
	movq	%rax, -1288(%rbp)
	.loc 1 1192 0
	movl	$.LC57, %edi
	call	puts
	.loc 1 1194 0
	leaq	-1328(%rbp), %rdx
	leaq	-1232(%rbp), %rcx
	movl	-1320(%rbp), %eax
	movq	%rcx, %rsi
	movl	%eax, %edi
	call	accept
	movl	%eax, -1300(%rbp)
	.loc 1 1196 0
	cmpl	$-1, -1300(%rbp)
	jne	.L172
	.loc 1 1198 0
	movl	$.LC57, %edi
	call	perror
	.loc 1 1199 0
	movl	$-1, %eax
	jmp	.L178
.L172:
	.loc 1 1202 0
	movl	$1, -1264(%rbp)
	.loc 1 1204 0
	movl	-1300(%rbp), %eax
	movl	%eax, -1260(%rbp)
	.loc 1 1206 0
	leaq	-1264(%rbp), %rcx
	movl	-1300(%rbp), %edx
	movl	-1316(%rbp), %eax
	movl	$1, %esi
	movl	%eax, %edi
	call	epoll_ctl
	.loc 1 1208 0
	movq	-1288(%rbp), %rax
	movl	$0, (%rax)
	.loc 1 1210 0
	movq	-1288(%rbp), %rax
	addq	$4, %rax
	movw	$48, (%rax)
	.loc 1 1212 0
	movq	-1288(%rbp), %rax
	movl	-1300(%rbp), %edx
	movl	%edx, 36(%rax)
	.loc 1 1214 0
	movzwl	-1230(%rbp), %eax
	movzwl	%ax, %eax
	movl	%eax, %edi
	call	ntohs
	movzwl	%ax, %edx
	movq	-1288(%rbp), %rax
	movl	%edx, 40(%rax)
	.loc 1 1216 0
	movq	-1288(%rbp), %rax
	leaq	44(%rax), %rdx
	.loc 1 1216 0
	leaq	-1232(%rbp), %rax
	addq	$4, %rax
	movl	$64, %ecx
	movq	%rax, %rsi
	movl	$2, %edi
	call	inet_ntop
	.loc 1 1218 0
	movq	-1296(%rbp), %rdx
	movq	-1288(%rbp), %rax
	movq	%rdx, 112(%rax)
	.loc 1 1220 0
	movq	-1288(%rbp), %rax
	movq	%rax, -1296(%rbp)
	.loc 1 1222 0
	movq	-1288(%rbp), %rax
	leaq	44(%rax), %rdx
	movq	-1288(%rbp), %rax
	movl	40(%rax), %eax
	movl	%eax, %esi
	movl	$.LC58, %edi
	movl	$0, %eax
	call	printf
	jmp	.L173
.L171:
.LBB8:
	.loc 1 1227 0
	leaq	-1248(%rbp), %rcx
	movl	-1304(%rbp), %eax
	movl	$8, %edx
	movq	%rcx, %rsi
	movl	%eax, %edi
	call	read
	movl	%eax, -1312(%rbp)
	.loc 1 1228 0
	cmpl	$0, -1312(%rbp)
	jne	.L174
	.loc 1 1231 0
	movl	$1231, %esi
	movl	$.LC39, %edi
	movl	$0, %eax
	call	printf
	.loc 1 1233 0
	movq	-1296(%rbp), %rax
	movl	-1304(%rbp), %edx
	movl	%edx, %esi
	movq	%rax, %rdi
	call	close_file
	.loc 1 1235 0
	movl	-1304(%rbp), %edx
	movl	-1316(%rbp), %eax
	movl	$0, %ecx
	movl	$2, %esi
	movl	%eax, %edi
	call	epoll_ctl
	.loc 1 1237 0
	movl	-1304(%rbp), %edx
	leaq	-1296(%rbp), %rax
	movl	%edx, %esi
	movq	%rax, %rdi
	call	del_link
	.loc 1 1239 0
	movl	-1304(%rbp), %eax
	movl	%eax, %edi
	call	close
	jmp	.L173
.L174:
	.loc 1 1240 0
	cmpl	$0, -1312(%rbp)
	jns	.L176
	.loc 1 1242 0
	movl	$1242, %esi
	movl	$.LC59, %edi
	movl	$0, %eax
	call	printf
	.loc 1 1244 0
	movq	-1296(%rbp), %rax
	movl	-1304(%rbp), %edx
	movl	%edx, %esi
	movq	%rax, %rdi
	call	close_file
	.loc 1 1246 0
	movl	-1304(%rbp), %edx
	movl	-1316(%rbp), %eax
	movl	$0, %ecx
	movl	$2, %esi
	movl	%eax, %edi
	call	epoll_ctl
	.loc 1 1248 0
	movl	-1304(%rbp), %edx
	leaq	-1296(%rbp), %rax
	movl	%edx, %esi
	movq	%rax, %rdi
	call	del_link
	.loc 1 1250 0
	movl	-1304(%rbp), %eax
	movl	%eax, %edi
	call	close
	jmp	.L173
.L176:
	.loc 1 1253 0
	movl	-1304(%rbp), %edx
	movq	-1248(%rbp), %rcx
	leaq	-1296(%rbp), %rax
	movq	%rcx, %rsi
	movq	%rax, %rdi
	call	name
.L173:
.LBE8:
	.loc 1 1185 0 discriminator 2
	addl	$1, -1324(%rbp)
.L170:
	.loc 1 1185 0 is_stmt 0 discriminator 1
	movl	-1324(%rbp), %eax
	cmpl	-1308(%rbp), %eax
	jl	.L177
.LBE7:
	.loc 1 1258 0 is_stmt 1
	jmp	.L168
.L178:
	.loc 1 1259 0 discriminator 1
	movq	-8(%rbp), %rcx
	xorq	%fs:40, %rcx
	je	.L179
	.loc 1 1259 0 is_stmt 0
	call	__stack_chk_fail
.L179:
	leave
	.cfi_def_cfa 7, 8
	ret
	.cfi_endproc
.LFE18:
	.size	main, .-main
	.section	.rodata
.LC60:
	.string	"upload %s"
.LC61:
	.string	"open over,%d\n"
.LC62:
	.string	"read"
.LC63:
	.string	"TCP broken"
.LC64:
	.string	"pa.lenth:%d,sum:%d\n"
.LC65:
	.string	"bytes_read:%d\n"
.LC66:
	.string	"length:%d,%d`\n"
.LC67:
	.string	"sum:%d,%d\n"
.LC68:
	.string	"send over"
	.text
	.globl	send_o
	.type	send_o, @function
send_o:
.LFB19:
	.loc 1 1262 0 is_stmt 1
	.cfi_startproc
	pushq	%rbp
	.cfi_def_cfa_offset 16
	.cfi_offset 6, -16
	movq	%rsp, %rbp
	.cfi_def_cfa_register 6
	subq	$2400, %rsp
	movq	%rdi, -2376(%rbp)
	movl	%esi, -2380(%rbp)
	movq	%rdx, -2400(%rbp)
	.loc 1 1262 0
	movq	%fs:40, %rax
	movq	%rax, -8(%rbp)
	xorl	%eax, %eax
	.loc 1 1274 0
	movl	$0, -2360(%rbp)
	.loc 1 1280 0
	movl	-2396(%rbp), %eax
	movslq	%eax, %rdx
	leaq	-2064(%rbp), %rcx
	movl	-2380(%rbp), %eax
	movq	%rcx, %rsi
	movl	%eax, %edi
	call	read
	movl	%eax, -2356(%rbp)
	.loc 1 1282 0
	movl	-2356(%rbp), %eax
	cltq
	movb	$0, -2064(%rbp,%rax)
	.loc 1 1284 0
	leaq	-2064(%rbp), %rax
	movq	%rax, %rdi
	call	puts
	.loc 1 1286 0
	leaq	-2064(%rbp), %rax
	movl	$420, %edx
	movl	$577, %esi
	movq	%rax, %rdi
	movl	$0, %eax
	call	open
	movl	%eax, -2352(%rbp)
	.loc 1 1288 0
	cmpl	$-1, -2352(%rbp)
	jne	.L181
	.loc 1 1290 0
	movl	$.LC28, %edi
	call	perror
	.loc 1 1291 0
	movl	$-1, %eax
	jmp	.L191
.L181:
	.loc 1 1296 0
	leaq	-2064(%rbp), %rdx
	leaq	-2320(%rbp), %rax
	movl	$.LC60, %esi
	movq	%rax, %rdi
	movl	$0, %eax
	call	sprintf
	.loc 1 1298 0
	movq	-2376(%rbp), %rdx
	leaq	-2320(%rbp), %rcx
	movl	-2380(%rbp), %eax
	movq	%rcx, %rsi
	movl	%eax, %edi
	call	mysql_record
	.loc 1 1300 0
	movl	$1300, %esi
	movl	$.LC61, %edi
	movl	$0, %eax
	call	printf
	.loc 1 1302 0
	leaq	-2336(%rbp), %rcx
	movl	-2380(%rbp), %eax
	movl	$8, %edx
	movq	%rcx, %rsi
	movl	%eax, %edi
	call	read
	movl	%eax, -2356(%rbp)
	.loc 1 1304 0
	cmpl	$0, -2356(%rbp)
	jns	.L183
	.loc 1 1306 0
	movl	$.LC62, %edi
	call	perror
	.loc 1 1307 0
	movl	$-1, %eax
	jmp	.L191
.L183:
	.loc 1 1308 0
	cmpl	$0, -2356(%rbp)
	jne	.L184
	.loc 1 1310 0
	movl	$.LC63, %edi
	call	puts
	.loc 1 1311 0
	movl	$-1, %eax
	jmp	.L191
.L184:
	.loc 1 1313 0
	movl	-2336(%rbp), %eax
	cmpl	$24, %eax
	jne	.L185
	.loc 1 1315 0
	movl	-2332(%rbp), %eax
	movl	%eax, -2348(%rbp)
	.loc 1 1317 0
	movl	-2332(%rbp), %eax
	movl	-2360(%rbp), %edx
	movl	%eax, %esi
	movl	$.LC64, %edi
	movl	$0, %eax
	call	printf
.L190:
	.loc 1 1321 0
	leaq	-1040(%rbp), %rcx
	movl	-2380(%rbp), %eax
	movl	$1024, %edx
	movq	%rcx, %rsi
	movl	%eax, %edi
	call	read
	movl	%eax, -2344(%rbp)
	.loc 1 1323 0
	movl	-2344(%rbp), %eax
	movl	%eax, %esi
	movl	$.LC65, %edi
	movl	$0, %eax
	call	printf
	.loc 1 1325 0
	movl	-2348(%rbp), %eax
	movl	$1325, %edx
	movl	%eax, %esi
	movl	$.LC66, %edi
	movl	$0, %eax
	call	printf
	.loc 1 1327 0
	cmpl	$0, -2344(%rbp)
	jle	.L190
	.loc 1 1330 0
	movl	-2344(%rbp), %eax
	addl	%eax, -2360(%rbp)
	.loc 1 1332 0
	cmpl	$1023, -2348(%rbp)
	jg	.L187
	.loc 1 1334 0
	movl	-2344(%rbp), %eax
	movslq	%eax, %rdx
	leaq	-1040(%rbp), %rcx
	movl	-2352(%rbp), %eax
	movq	%rcx, %rsi
	movl	%eax, %edi
	call	write
	movl	%eax, -2340(%rbp)
	.loc 1 1336 0
	jmp	.L185
.L187:
	.loc 1 1339 0
	movl	-2344(%rbp), %eax
	movslq	%eax, %rdx
	leaq	-1040(%rbp), %rcx
	movl	-2352(%rbp), %eax
	movq	%rcx, %rsi
	movl	%eax, %edi
	call	write
	movl	%eax, -2340(%rbp)
	.loc 1 1341 0
	cmpl	$-1, -2340(%rbp)
	jne	.L188
	.loc 1 1343 0
	movl	$.LC14, %edi
	call	perror
	.loc 1 1344 0
	movl	$-1, %eax
	jmp	.L191
.L188:
	.loc 1 1345 0
	cmpl	$0, -2340(%rbp)
	je	.L193
	.loc 1 1349 0
	movl	-2360(%rbp), %eax
	movl	$1349, %edx
	movl	%eax, %esi
	movl	$.LC67, %edi
	movl	$0, %eax
	call	printf
	.loc 1 1351 0
	movl	-2360(%rbp), %eax
	cmpl	-2348(%rbp), %eax
	jge	.L194
	.loc 1 1357 0
	jmp	.L190
.L193:
	.loc 1 1347 0
	nop
	jmp	.L185
.L194:
	.loc 1 1354 0
	nop
.L185:
	.loc 1 1360 0
	movl	$.LC68, %edi
	call	puts
	.loc 1 1362 0
	movl	$0, %eax
.L191:
	.loc 1 1363 0 discriminator 1
	movq	-8(%rbp), %rcx
	xorq	%fs:40, %rcx
	je	.L192
	.loc 1 1363 0 is_stmt 0
	call	__stack_chk_fail
.L192:
	leave
	.cfi_def_cfa 7, 8
	ret
	.cfi_endproc
.LFE19:
	.size	send_o, .-send_o
	.section	.rodata
.LC69:
	.string	"name :type :%d\n"
.LC70:
	.string	"show"
	.text
	.globl	name
	.type	name, @function
name:
.LFB20:
	.loc 1 1370 0 is_stmt 1
	.cfi_startproc
	pushq	%rbp
	.cfi_def_cfa_offset 16
	.cfi_offset 6, -16
	movq	%rsp, %rbp
	.cfi_def_cfa_register 6
	subq	$32, %rsp
	movq	%rdi, -8(%rbp)
	movq	%rsi, -16(%rbp)
	movl	%edx, -20(%rbp)
	.loc 1 1371 0
	movl	-16(%rbp), %eax
	xorb	$-122, %al
	movl	%eax, -16(%rbp)
	.loc 1 1373 0
	movl	-16(%rbp), %eax
	movl	%eax, %esi
	movl	$.LC69, %edi
	movl	$0, %eax
	call	printf
	.loc 1 1375 0
	movl	-16(%rbp), %eax
	cmpl	$10, %eax
	jne	.L196
	.loc 1 1377 0
	movq	-8(%rbp), %rax
	movq	(%rax), %rax
	movl	-20(%rbp), %edx
	movq	-16(%rbp), %rcx
	movq	%rcx, %rsi
	movq	%rax, %rdi
	call	order
	.loc 1 1379 0
	movq	-8(%rbp), %rax
	movq	(%rax), %rax
	movq	%rax, %rdi
	call	show
	jmp	.L197
.L196:
	.loc 1 1381 0
	movl	-16(%rbp), %eax
	cmpl	$11, %eax
	jne	.L198
	.loc 1 1383 0
	movq	-16(%rbp), %rdx
	movl	-20(%rbp), %eax
	movq	%rdx, %rsi
	movl	%eax, %edi
	call	reg_ok
	jmp	.L197
.L198:
	.loc 1 1385 0
	movl	-16(%rbp), %eax
	cmpl	$21, %eax
	jne	.L199
	.loc 1 1387 0
	movq	-8(%rbp), %rax
	movq	(%rax), %rax
	movq	-16(%rbp), %rdx
	movl	-20(%rbp), %ecx
	movl	%ecx, %esi
	movq	%rax, %rdi
	call	send_o
	.loc 1 1389 0
	movq	-8(%rbp), %rax
	movq	(%rax), %rax
	movq	%rax, %rdi
	call	show
	jmp	.L197
.L199:
	.loc 1 1391 0
	movl	-16(%rbp), %eax
	cmpl	$31, %eax
	jne	.L200
	.loc 1 1393 0
	movq	-8(%rbp), %rax
	movq	(%rax), %rax
	movq	-16(%rbp), %rdx
	movl	-20(%rbp), %ecx
	movl	%ecx, %esi
	movq	%rax, %rdi
	call	rec_o
	.loc 1 1395 0
	movq	-8(%rbp), %rax
	movq	(%rax), %rax
	movq	%rax, %rdi
	call	show
	jmp	.L197
.L200:
	.loc 1 1397 0
	movl	-16(%rbp), %eax
	cmpl	$41, %eax
	jne	.L201
	.loc 1 1399 0
	movq	-16(%rbp), %rdx
	movl	-20(%rbp), %ecx
	movq	-8(%rbp), %rax
	movl	%ecx, %esi
	movq	%rax, %rdi
	call	log_ok
	.loc 1 1401 0
	movq	-8(%rbp), %rax
	movq	(%rax), %rax
	movq	%rax, %rdi
	call	show
	jmp	.L197
.L201:
	.loc 1 1403 0
	movl	-16(%rbp), %eax
	cmpl	$61, %eax
	jne	.L202
	.loc 1 1406 0
	movq	-8(%rbp), %rax
	movq	(%rax), %rax
	movl	-20(%rbp), %edx
	movl	%edx, %esi
	movq	%rax, %rdi
	call	send_link
	.loc 1 1408 0
	movq	-8(%rbp), %rax
	movq	(%rax), %rax
	movq	%rax, %rdi
	call	show
	jmp	.L197
.L202:
	.loc 1 1410 0
	movl	-16(%rbp), %eax
	cmpl	$51, %eax
	jne	.L203
	.loc 1 1413 0
	movq	-8(%rbp), %rdx
	movq	-16(%rbp), %rcx
	movl	-20(%rbp), %eax
	movq	%rcx, %rsi
	movl	%eax, %edi
	call	exit_ok
	jmp	.L197
.L203:
	.loc 1 1415 0
	movl	-16(%rbp), %eax
	cmpl	$71, %eax
	jne	.L204
	.loc 1 1418 0
	movl	$.LC70, %edi
	call	puts
	.loc 1 1420 0
	movq	-16(%rbp), %rdx
	movl	-20(%rbp), %eax
	movq	%rdx, %rsi
	movl	%eax, %edi
	call	show_mysql
	jmp	.L197
.L204:
	.loc 1 1422 0
	movl	-16(%rbp), %eax
	cmpl	$81, %eax
	jne	.L197
	.loc 1 1425 0
	movq	-16(%rbp), %rdx
	movl	-20(%rbp), %eax
	movq	%rdx, %rsi
	movl	%eax, %edi
	call	record_mysql
.L197:
	.loc 1 1430 0
	nop
	leave
	.cfi_def_cfa 7, 8
	ret
	.cfi_endproc
.LFE20:
	.size	name, .-name
	.section	.rodata
.LC71:
	.string	"file:%s,%d\n"
.LC72:
	.string	"rb"
.LC73:
	.string	"file not found!"
	.align 8
.LC74:
	.string	"\350\257\245\346\226\207\344\273\266\347\232\204\351\225\277\345\272\246\344\270\272%ld\345\255\227\350\212\202\n"
.LC75:
	.string	"length:%ld,%d\n"
.LC76:
	.string	"fd:%d\n"
.LC77:
	.string	"download %s"
.LC78:
	.string	"read error"
.LC79:
	.string	"read over"
.LC80:
	.string	"ret1:%d\n"
.LC81:
	.string	"rec over"
	.text
	.globl	rec_o
	.type	rec_o, @function
rec_o:
.LFB21:
	.loc 1 1433 0
	.cfi_startproc
	pushq	%rbp
	.cfi_def_cfa_offset 16
	.cfi_offset 6, -16
	movq	%rsp, %rbp
	.cfi_def_cfa_register 6
	subq	$2400, %rsp
	movq	%rdi, -2376(%rbp)
	movl	%esi, -2380(%rbp)
	movq	%rdx, -2400(%rbp)
	.loc 1 1433 0
	movq	%fs:40, %rax
	movq	%rax, -8(%rbp)
	xorl	%eax, %eax
	.loc 1 1446 0
	movl	-2396(%rbp), %eax
	movslq	%eax, %rdx
	leaq	-2064(%rbp), %rcx
	movl	-2380(%rbp), %eax
	movq	%rcx, %rsi
	movl	%eax, %edi
	call	read
	movl	%eax, -2364(%rbp)
	.loc 1 1448 0
	movl	-2364(%rbp), %eax
	cltq
	movb	$0, -2064(%rbp,%rax)
	.loc 1 1450 0
	movl	-2396(%rbp), %edx
	leaq	-2064(%rbp), %rax
	movq	%rax, %rsi
	movl	$.LC71, %edi
	movl	$0, %eax
	call	printf
	.loc 1 1452 0
	movq	$0, -2344(%rbp)
	.loc 1 1457 0
	leaq	-2064(%rbp), %rax
	movl	$.LC72, %esi
	movq	%rax, %rdi
	call	fopen
	movq	%rax, -2344(%rbp)
	.loc 1 1459 0
	cmpq	$0, -2344(%rbp)
	jne	.L206
	.loc 1 1460 0
	movl	$.LC73, %edi
	call	puts
	jmp	.L207
.L206:
	.loc 1 1464 0
	movq	-2344(%rbp), %rax
	movl	$2, %edx
	movl	$0, %esi
	movq	%rax, %rdi
	call	fseek
	.loc 1 1467 0
	movq	-2344(%rbp), %rax
	movq	%rax, %rdi
	call	ftell
	movq	%rax, -2352(%rbp)
	.loc 1 1469 0
	movq	-2352(%rbp), %rax
	movq	%rax, %rsi
	movl	$.LC74, %edi
	movl	$0, %eax
	call	printf
	.loc 1 1471 0
	movq	-2344(%rbp), %rax
	movq	%rax, %rdi
	call	fclose
.L207:
	.loc 1 1474 0
	movq	-2352(%rbp), %rax
	movl	$1474, %edx
	movq	%rax, %rsi
	movl	$.LC75, %edi
	movl	$0, %eax
	call	printf
	.loc 1 1476 0
	leaq	-2064(%rbp), %rax
	movl	$0, %esi
	movq	%rax, %rdi
	movl	$0, %eax
	call	open
	movl	%eax, -2360(%rbp)
	.loc 1 1478 0
	cmpl	$0, -2364(%rbp)
	jns	.L208
	.loc 1 1480 0
	movl	$.LC28, %edi
	call	perror
	.loc 1 1481 0
	movl	$-1, %eax
	jmp	.L218
.L208:
	.loc 1 1484 0
	movl	-2360(%rbp), %eax
	movl	%eax, %esi
	movl	$.LC76, %edi
	movl	$0, %eax
	call	printf
	.loc 1 1488 0
	leaq	-2064(%rbp), %rdx
	leaq	-2320(%rbp), %rax
	movl	$.LC77, %esi
	movq	%rax, %rdi
	movl	$0, %eax
	call	sprintf
	.loc 1 1490 0
	movq	-2376(%rbp), %rdx
	leaq	-2320(%rbp), %rcx
	movl	-2380(%rbp), %eax
	movq	%rcx, %rsi
	movl	%eax, %edi
	call	mysql_record
	.loc 1 1494 0
	movl	$34, -2336(%rbp)
	.loc 1 1496 0
	movq	-2352(%rbp), %rax
	movl	%eax, -2332(%rbp)
	.loc 1 1498 0
	leaq	-2336(%rbp), %rcx
	movl	-2380(%rbp), %eax
	movl	$8, %edx
	movq	%rcx, %rsi
	movl	%eax, %edi
	call	write
	movl	%eax, -2364(%rbp)
	.loc 1 1500 0
	cmpl	$0, -2364(%rbp)
	jg	.L211
	.loc 1 1502 0
	movl	$.LC14, %edi
	call	perror
	.loc 1 1503 0
	movl	$-1, %eax
	jmp	.L218
.L217:
	.loc 1 1510 0
	leaq	-1040(%rbp), %rcx
	movl	-2360(%rbp), %eax
	movl	$1024, %edx
	movq	%rcx, %rsi
	movl	%eax, %edi
	call	read
	movl	%eax, -2364(%rbp)
	.loc 1 1512 0
	movq	-2352(%rbp), %rax
	movl	$1512, %edx
	movq	%rax, %rsi
	movl	$.LC75, %edi
	movl	$0, %eax
	call	printf
	.loc 1 1515 0
	cmpl	$0, -2364(%rbp)
	jns	.L212
	.loc 1 1517 0
	movl	$.LC78, %edi
	call	puts
	.loc 1 1518 0
	movl	$-1, %eax
	jmp	.L218
.L212:
	.loc 1 1520 0
	cmpl	$0, -2364(%rbp)
	jne	.L213
	.loc 1 1522 0
	movl	$.LC79, %edi
	call	puts
	.loc 1 1523 0
	jmp	.L214
.L213:
	.loc 1 1525 0
	cmpl	$1024, -2364(%rbp)
	jne	.L215
	.loc 1 1528 0
	movl	-2364(%rbp), %eax
	movslq	%eax, %rdx
	leaq	-1040(%rbp), %rcx
	movl	-2380(%rbp), %eax
	movq	%rcx, %rsi
	movl	%eax, %edi
	call	write
	movl	%eax, -2356(%rbp)
	.loc 1 1530 0
	movl	-2356(%rbp), %eax
	movl	%eax, %esi
	movl	$.LC80, %edi
	movl	$0, %eax
	call	printf
	jmp	.L216
.L215:
	.loc 1 1532 0
	movl	-2364(%rbp), %eax
	cltq
	cmpq	-2352(%rbp), %rax
	jne	.L216
	.loc 1 1534 0
	movl	-2364(%rbp), %eax
	movslq	%eax, %rdx
	leaq	-1040(%rbp), %rcx
	movl	-2380(%rbp), %eax
	movq	%rcx, %rsi
	movl	%eax, %edi
	call	write
	movl	%eax, -2356(%rbp)
	.loc 1 1536 0
	movl	-2356(%rbp), %eax
	movl	%eax, %esi
	movl	$.LC80, %edi
	movl	$0, %eax
	call	printf
.L216:
	.loc 1 1539 0
	movl	-2364(%rbp), %eax
	cltq
	subq	%rax, -2352(%rbp)
.L211:
	.loc 1 1508 0
	cmpq	$0, -2352(%rbp)
	jg	.L217
.L214:
	.loc 1 1543 0
	movl	$.LC81, %edi
	call	puts
	.loc 1 1545 0
	movl	$0, %eax
.L218:
	.loc 1 1546 0 discriminator 1
	movq	-8(%rbp), %rcx
	xorq	%fs:40, %rcx
	je	.L219
	.loc 1 1546 0 is_stmt 0
	call	__stack_chk_fail
.L219:
	leave
	.cfi_def_cfa 7, 8
	ret
	.cfi_endproc
.LFE21:
	.size	rec_o, .-rec_o
	.section	.rodata
.LC82:
	.string	"ret:%d\n"
.LC83:
	.string	"ptr :%s\n"
.LC84:
	.string	"%s>>./.file"
.LC85:
	.string	"system"
.LC86:
	.string	"order: %s"
.LC87:
	.string	"./.file"
.LC88:
	.string	"rm   ./.file  -f"
.LC89:
	.string	"order over"
	.text
	.globl	order
	.type	order, @function
order:
.LFB22:
	.loc 1 1552 0 is_stmt 1
	.cfi_startproc
	pushq	%rbp
	.cfi_def_cfa_offset 16
	.cfi_offset 6, -16
	movq	%rsp, %rbp
	.cfi_def_cfa_register 6
	subq	$3408, %rsp
	movq	%rdi, -3384(%rbp)
	movq	%rsi, -3392(%rbp)
	movl	%edx, -3396(%rbp)
	.loc 1 1552 0
	movq	%fs:40, %rax
	movq	%rax, -8(%rbp)
	xorl	%eax, %eax
	.loc 1 1562 0
	movq	$0, -3360(%rbp)
	.loc 1 1562 0
	movq	$0, -3352(%rbp)
	.loc 1 1564 0
	movl	$1, -3372(%rbp)
	.loc 1 1566 0
	movl	-3388(%rbp), %eax
	movslq	%eax, %rdx
	leaq	-2064(%rbp), %rcx
	movl	-3396(%rbp), %eax
	movq	%rcx, %rsi
	movl	%eax, %edi
	call	read
	movl	%eax, -3368(%rbp)
	.loc 1 1568 0
	movl	-3368(%rbp), %eax
	movl	%eax, %esi
	movl	$.LC82, %edi
	movl	$0, %eax
	call	printf
	.loc 1 1570 0
	movl	-3368(%rbp), %eax
	cltq
	movb	$0, -2064(%rbp,%rax)
	.loc 1 1572 0
	leaq	-2064(%rbp), %rax
	movq	%rax, %rsi
	movl	$.LC83, %edi
	movl	$0, %eax
	call	printf
	.loc 1 1576 0
	leaq	-2064(%rbp), %rdx
	leaq	-1040(%rbp), %rax
	movl	$.LC84, %esi
	movq	%rax, %rdi
	movl	$0, %eax
	call	sprintf
	.loc 1 1578 0
	leaq	-1040(%rbp), %rax
	movq	%rax, %rdi
	call	puts
	.loc 1 1580 0
	leaq	-1040(%rbp), %rax
	movq	%rax, %rdi
	call	system
	movl	%eax, -3368(%rbp)
	.loc 1 1582 0
	cmpl	$0, -3368(%rbp)
	jns	.L221
	.loc 1 1584 0
	movl	$.LC85, %edi
	call	perror
	.loc 1 1585 0
	movl	$-1, %eax
	jmp	.L228
.L221:
	.loc 1 1590 0
	leaq	-2064(%rbp), %rdx
	leaq	-3344(%rbp), %rax
	movl	$.LC86, %esi
	movq	%rax, %rdi
	movl	$0, %eax
	call	sprintf
	.loc 1 1592 0
	movq	-3384(%rbp), %rdx
	leaq	-3344(%rbp), %rcx
	movl	-3396(%rbp), %eax
	movq	%rcx, %rsi
	movl	%eax, %edi
	call	mysql_record
	.loc 1 1594 0
	movl	$0, %esi
	movl	$.LC87, %edi
	movl	$0, %eax
	call	open
	movl	%eax, -3364(%rbp)
	.loc 1 1595 0
	cmpl	$0, -3368(%rbp)
	jns	.L223
	.loc 1 1597 0
	movl	$.LC28, %edi
	call	perror
	.loc 1 1598 0
	movl	$-1, %eax
	jmp	.L228
.L223:
	.loc 1 1603 0
	leaq	-3088(%rbp), %rcx
	movl	-3364(%rbp), %eax
	movl	$1024, %edx
	movq	%rcx, %rsi
	movl	%eax, %edi
	call	read
	movl	%eax, -3368(%rbp)
	.loc 1 1605 0
	cmpl	$0, -3368(%rbp)
	jns	.L224
	.loc 1 1607 0
	movl	$.LC78, %edi
	call	puts
	.loc 1 1608 0
	movl	$-1, %eax
	jmp	.L228
.L224:
	.loc 1 1609 0
	cmpl	$0, -3368(%rbp)
	jne	.L225
	.loc 1 1611 0
	movl	$8, %edi
	call	malloc
	movq	%rax, -3352(%rbp)
	.loc 1 1613 0
	movq	-3352(%rbp), %rax
	movl	$30, (%rax)
	.loc 1 1615 0
	movq	-3352(%rbp), %rcx
	movl	-3396(%rbp), %eax
	movl	$8, %edx
	movq	%rcx, %rsi
	movl	%eax, %edi
	call	write
	.loc 1 1617 0
	jmp	.L226
.L225:
	.loc 1 1620 0
	leaq	-3088(%rbp), %rax
	movq	%rax, %rdi
	call	strlen
	addq	$8, %rax
	movq	%rax, %rdi
	call	malloc
	movq	%rax, -3360(%rbp)
	.loc 1 1622 0
	movq	-3360(%rbp), %rax
	movl	-3368(%rbp), %edx
	movl	%edx, 4(%rax)
	.loc 1 1624 0
	movq	-3360(%rbp), %rax
	movl	$20, (%rax)
	.loc 1 1626 0
	movl	-3368(%rbp), %eax
	movslq	%eax, %rdx
	movq	-3360(%rbp), %rax
	leaq	8(%rax), %rcx
	leaq	-3088(%rbp), %rax
	movq	%rax, %rsi
	movq	%rcx, %rdi
	call	memcpy
	.loc 1 1628 0
	movl	-3368(%rbp), %eax
	cltq
	leaq	8(%rax), %rdx
	movq	-3360(%rbp), %rcx
	movl	-3396(%rbp), %eax
	movq	%rcx, %rsi
	movl	%eax, %edi
	call	write
	movl	%eax, -3368(%rbp)
	.loc 1 1630 0
	cmpl	$-10, -3368(%rbp)
	je	.L230
	.loc 1 1638 0
	jmp	.L223
.L230:
	.loc 1 1632 0
	nop
.L226:
	.loc 1 1640 0
	movl	-3364(%rbp), %eax
	movl	%eax, %edi
	call	close
	.loc 1 1642 0
	movl	$.LC88, %edi
	call	system
	.loc 1 1644 0
	movl	$.LC89, %edi
	call	puts
	.loc 1 1646 0
	movl	$0, %eax
.L228:
	.loc 1 1647 0 discriminator 1
	movq	-8(%rbp), %rcx
	xorq	%fs:40, %rcx
	je	.L229
	.loc 1 1647 0 is_stmt 0
	call	__stack_chk_fail
.L229:
	leave
	.cfi_def_cfa 7, 8
	ret
	.cfi_endproc
.LFE22:
	.size	order, .-order
.Letext0:
	.file 2 "/usr/lib/gcc/x86_64-linux-gnu/5/include/stddef.h"
	.file 3 "/usr/include/x86_64-linux-gnu/bits/types.h"
	.file 4 "/usr/include/stdio.h"
	.file 5 "/usr/include/libio.h"
	.file 6 "/usr/include/fcntl.h"
	.file 7 "/usr/include/stdint.h"
	.file 8 "/usr/include/time.h"
	.file 9 "/usr/include/x86_64-linux-gnu/bits/sockaddr.h"
	.file 10 "/usr/include/x86_64-linux-gnu/bits/socket.h"
	.file 11 "/usr/include/netinet/in.h"
	.file 12 "/usr/include/x86_64-linux-gnu/bits/socket_type.h"
	.file 13 "/usr/include/x86_64-linux-gnu/sys/epoll.h"
	.file 14 "/usr/include/mysql/mysql.h"
	.file 15 "/usr/include/mysql/binary_log_types.h"
	.file 16 "/usr/include/mysql/mysql_com.h"
	.file 17 "/usr/include/mysql/my_list.h"
	.file 18 "/usr/include/mysql/mysql/psi/psi_memory.h"
	.file 19 "/usr/include/mysql/my_alloc.h"
	.file 20 "server/server.h"
	.section	.note.GNU-stack,"",@progbits
